(dp0
S'S_top'
p1
F-8.456057320347714
sS'S_bottom'
p2
F14.198393359356995
sS'average_bottom'
p3
cnumpy.core.multiarray
_reconstruct
p4
(cnumpy
ndarray
p5
(I0
tp6
S'b'
p7
tp8
Rp9
(I1
(I3
tp10
cnumpy
dtype
p11
(S'f8'
p12
I0
I1
tp13
Rp14
(I3
S'<'
p15
NNNI-1
I-1
I0
tp16
bI00
S'\xc4R\xc4\x1d\xfcR{\xbfTL\xfd\x7f\xc1\x92<\xbf\xe3<\xbd/\xbd\xae\xb2?'
p17
tp18
bsS'average_top'
p19
g4
(g5
(I0
tp20
g7
tp21
Rp22
(I1
(I3
tp23
g14
I00
S'<\x9f{\xe1P\xe8~\xbf\x84>\xd7\t|\x83W?!x\x05|\x98t\xad\xbf'
p24
tp25
bsS'average_total'
p26
g4
(g5
(I0
tp27
g7
tp28
Rp29
(I1
(I3
tp30
g14
I00
S'?A~\x9b!\xdc|\xbf\x8c\xe8yOi\xfb7?A\xe31\x0cpt\x91?'
p31
tp32
bsS'S_total'
p33
F5.742336039009317
s.