(dp0
S'S_top'
p1
F-11.026561180608027
sS'S_bottom'
p2
F14.090879590812428
sS'average_bottom'
p3
cnumpy.core.multiarray
_reconstruct
p4
(cnumpy
ndarray
p5
(I0
tp6
S'b'
p7
tp8
Rp9
(I1
(I3
tp10
cnumpy
dtype
p11
(S'f8'
p12
I0
I1
tp13
Rp14
(I3
S'<'
p15
NNNI-1
I-1
I0
tp16
bI00
S'\xc8t\x08\x88\xfb\x0b\x88\xbf\x9d\xa5\xf2X\x03\xefv?R\xfdfclm\xb2?'
p17
tp18
bsS'average_top'
p19
g4
(g5
(I0
tp20
g7
tp21
Rp22
(I1
(I3
tp23
g14
I00
S']\xd7o&L`\x87\xbfZN\xfe\x9a\xf7Q}?z\xa3s\x05h\xbe\xb0\xbf'
p24
tp25
bsS'average_total'
p26
g4
(g5
(I0
tp27
g7
tp28
Rp29
(I1
(I3
tp30
g14
I00
S'\xae\xab4q\xa8\xba\x87\xbf\x84\x7f3.w\xf5y?&#Eb-G|?'
p31
tp32
bsS'S_total'
p33
F3.064318410204422
s.