(dp0
S'S_top'
p1
F-5.053221398239559
sS'S_bottom'
p2
F14.396400688256715
sS'average_bottom'
p3
cnumpy.core.multiarray
_reconstruct
p4
(cnumpy
ndarray
p5
(I0
tp6
S'b'
p7
tp8
Rp9
(I1
(I3
tp10
cnumpy
dtype
p11
(S'f8'
p12
I0
I1
tp13
Rp14
(I3
S'<'
p15
NNNI-1
I-1
I0
tp16
bI00
S'+\xe1j .\x15\x8b?C\x7f\xb9}+]\x8e?.\x1d\x1b{\xfa\x1e\xb3?'
p17
tp18
bsS'average_top'
p19
g4
(g5
(I0
tp20
g7
tp21
Rp22
(I1
(I3
tp23
g14
I00
S'\xe1n\x9a-\x8fg\x96?\\\x820\x80(\xa0\x84?\xda\xc7\xb76\x04~\xa4\xbf'
p24
tp25
bsS'average_total'
p26
g4
(g5
(I0
tp27
g7
tp28
Rp29
(I1
(I3
tp30
g14
I00
S'\x01$qg\xb5\xaf\x90?\xa1`\xe9h\x8d\xe8\x8a?\xa2\r\xd2\xd6\x9bf\xa1?'
p31
tp32
bsS'S_total'
p33
F9.34317929001717
s.