(dp0
S'S_top'
p1
F-10.191578508269272
sS'S_bottom'
p2
F14.114035412663448
sS'average_bottom'
p3
cnumpy.core.multiarray
_reconstruct
p4
(cnumpy
ndarray
p5
(I0
tp6
S'b'
p7
tp8
Rp9
(I1
(I3
tp10
cnumpy
dtype
p11
(S'f8'
p12
I0
I1
tp13
Rp14
(I3
S'<'
p15
NNNI-1
I-1
I0
tp16
bI00
S'\xa8\xa3jh\xf9\xe1\x85\xbf\xb2\xf7T\xf9\xd7\x87u?\xfb\xeaM\x82Q\x85\xb2?'
p17
tp18
bsS'average_top'
p19
g4
(g5
(I0
tp20
g7
tp21
Rp22
(I1
(I3
tp23
g14
I00
S'\x9fr\xe1\xd0-\xc1\x84\xbf\xfeQj*\xbf\xfd\x7f?AzI\x9dF!\xb0\xbf'
p24
tp25
bsS'average_total'
p26
g4
(g5
(I0
tp27
g7
tp28
Rp29
(I1
(I3
tp30
g14
I00
S'V\xab\xd8\x9bH]\x85\xbf\xcc\xc5\xd0h=Vz?\x98\x86I+\xe6\xcc\x84?'
p31
tp32
bsS'S_total'
p33
F3.922456904394156
s.