(dp0
S'S_top'
p1
F-3.6471905181852318
sS'S_bottom'
p2
F14.477937604830045
sS'average_bottom'
p3
cnumpy.core.multiarray
_reconstruct
p4
(cnumpy
ndarray
p5
(I0
tp6
S'b'
p7
tp8
Rp9
(I1
(I3
tp10
cnumpy
dtype
p11
(S'f8'
p12
I0
I1
tp13
Rp14
(I3
S'<'
p15
NNNI-1
I-1
I0
tp16
bI00
S'\x91\xf2\xa6\x8d\x87\x1e\x8a\xbf\x14\x0b_O\xa1\x8bQ\xbf*l)`4d\xb3?'
p17
tp18
bsS'average_top'
p19
g4
(g5
(I0
tp20
g7
tp21
Rp22
(I1
(I3
tp23
g14
I00
S'\x9bY\xd8\xbaSa\x8c\xbf\xe8F\x01%\x00\xe6z?\xe6f\xf5\xb8\x8b*\x9b\xbf'
p24
tp25
bsS'average_total'
p26
g4
(g5
(I0
tp27
g7
tp28
Rp29
(I1
(I3
tp30
g14
I00
S'_\x0c\x1fW(\xd2\x8a\xbfk\xe6e\x12\x88JU?\xec\xcei\x0c\xff\x87\xa6?'
p31
tp32
bsS'S_total'
p33
F10.830747086644857
s.