(dp0
S'S_top'
p1
F-4.2606888204580144
sS'S_bottom'
p2
F14.424663392589956
sS'average_bottom'
p3
cnumpy.core.multiarray
_reconstruct
p4
(cnumpy
ndarray
p5
(I0
tp6
S'b'
p7
tp8
Rp9
(I1
(I3
tp10
cnumpy
dtype
p11
(S'f8'
p12
I0
I1
tp13
Rp14
(I3
S'<'
p15
NNNI-1
I-1
I0
tp16
bI00
S'Z\xa3;\xd0\x8a\x1e\x80\xbf&\xf8\xe9\xc0r\x17g?\xc8G\xfbz\x1c=\xb3?'
p17
tp18
bsS'average_top'
p19
g4
(g5
(I0
tp20
g7
tp21
Rp22
(I1
(I3
tp23
g14
I00
S'\xba\x9b.[:x{\xbf\xddb\x10\x13V\xac~?/\xd1m$\xacK\xa1\xbf'
p24
tp25
bsS'average_total'
p26
g4
(g5
(I0
tp27
g7
tp28
Rp29
(I1
(I3
tp30
g14
I00
S'\x17\x8c\xa3\xaf"\xa6~\xbf{\xc8\xffU\xea\xebq?\x9dyP#\xf6\xe2\xa3?'
p31
tp32
bsS'S_total'
p33
F10.163974572131906
s.