(dp0
S'S_top'
p1
F0.16116074076309853
sS'S_bottom'
p2
F0.3582526686536988
sS'average_bottom'
p3
cnumpy.core.multiarray
_reconstruct
p4
(cnumpy
ndarray
p5
(I0
tp6
S'b'
p7
tp8
Rp9
(I1
(I3
tp10
cnumpy
dtype
p11
(S'f8'
p12
I0
I1
tp13
Rp14
(I3
S'<'
p15
NNNI-1
I-1
I0
tp16
bI00
S'E\x1c%\xb22v\xd2\xbeh\xaf\x8b\xda\xdf\x8d\xb9>\xb8\xe43\xeb\xd9\xee\xef?'
p17
tp18
bsS'average_top'
p19
g4
(g5
(I0
tp20
g7
tp21
Rp22
(I1
(I3
tp23
g14
I00
S'\xb9*zDB\xaa\xe8>C\xb37:\xb7\xf1\xbd\xbee\x92f\x8e\xaf\xf0\xef?'
p24
tp25
bsS'average_total'
p26
g4
(g5
(I0
tp27
g7
tp28
Rp29
(I1
(I3
tp30
g14
I00
S'5\xc6\xb8\xc8\xa5\x8a\xb0>\x82~LL18\x9c>\xc7\x14\x9fvv\xef\xef?'
p31
tp32
bsS'S_total'
p33
F0.5194134094167956
s.