(dp0
S'S_top'
p1
F-6.014053423848282
sS'S_bottom'
p2
F2.7925509638912827
sS'average_bottom'
p3
cnumpy.core.multiarray
_reconstruct
p4
(cnumpy
ndarray
p5
(I0
tp6
S'b'
p7
tp8
Rp9
(I1
(I3
tp10
cnumpy
dtype
p11
(S'f8'
p12
I0
I1
tp13
Rp14
(I3
S'<'
p15
NNNI-1
I-1
I0
tp16
bI00
S'EC\xf1(\xa2U0\xbf9\x0e\x14\xbf\x1a\x9ce?\xb6\x10o\xa4\xbcC\xa4?'
p17
tp18
bsS'average_top'
p19
g4
(g5
(I0
tp20
g7
tp21
Rp22
(I1
(I3
tp23
g14
I00
S'\x04\xed*4\xaaR9\xbf"?\x018\xcc\xe9k?\xae\xc5\xbe\xb5\\]\xcf?'
p24
tp25
bsS'average_total'
p26
g4
(g5
(I0
tp27
g7
tp28
Rp29
(I1
(I3
tp30
g14
I00
S'\x0f\xed\x8eM\xa3T3\xbf\xdb\xfc\xe3}\xff\xb5g?z\x07MZ\x1e\xaa\xbb?'
p31
tp32
bsS'S_total'
p33
F-3.2215024599569464
s.