(dp0
S'S_top'
p1
F-6.165941975193754
sS'S_bottom'
p2
F2.6553386735646045
sS'average_bottom'
p3
cnumpy.core.multiarray
_reconstruct
p4
(cnumpy
ndarray
p5
(I0
tp6
S'b'
p7
tp8
Rp9
(I1
(I3
tp10
cnumpy
dtype
p11
(S'f8'
p12
I0
I1
tp13
Rp14
(I3
S'<'
p15
NNNI-1
I-1
I0
tp16
bI00
S'\xaa\xc7wD\x7f\xd9:\xbf\xa2E\xf1\x0bg\xa1f?r\x10\x8d\x9aV\x9e\x9d?'
p17
tp18
bsS'average_top'
p19
g4
(g5
(I0
tp20
g7
tp21
Rp22
(I1
(I3
tp23
g14
I00
S'K|\xa0\xc1\x94JG\xbf(R9-\x9c\xf1k?\x96K\x0f\xbfc`\xcd?'
p24
tp25
bsS'average_total'
p26
g4
(g5
(I0
tp27
g7
tp28
Rp29
(I1
(I3
tp30
g14
I00
S'~\xba\x19\xa7\xaf\xb6@\xbf\x0c\xff@.\xcdfh?\x14\x99\xd4$H\x85\xb8?'
p31
tp32
bsS'S_total'
p33
F-3.510603301629079
s.