(dp0
S'S_top'
p1
F-6.283843845831077
sS'S_bottom'
p2
F2.5661405513895104
sS'average_bottom'
p3
cnumpy.core.multiarray
_reconstruct
p4
(cnumpy
ndarray
p5
(I0
tp6
S'b'
p7
tp8
Rp9
(I1
(I3
tp10
cnumpy
dtype
p11
(S'f8'
p12
I0
I1
tp13
Rp14
(I3
S'<'
p15
NNNI-1
I-1
I0
tp16
bI00
S'o\xdd|EH\xc0B\xbf\xf7\xb2R\x1f#dg?\xaaM\xf1\xb7\x02\x00\x93?'
p17
tp18
bsS'average_top'
p19
g4
(g5
(I0
tp20
g7
tp21
Rp22
(I1
(I3
tp23
g14
I00
S'\xb9\x85\x97\xd1|\x7fP\xbf9^?IJ0l?j\x17>\xfe\x0f\x84\xcb?'
p24
tp25
bsS'average_total'
p26
g4
(g5
(I0
tp27
g7
tp28
Rp29
(I1
(I3
tp30
g14
I00
S'\xc1\xb0\xf7I\xd6\x7fG\xbfD\xc3r\xb0\x84\xfdh?C @-\xad\x82\xb5?'
p31
tp32
bsS'S_total'
p33
F-3.717703294441604
s.