(dp0
S'S_top'
p1
F-6.542140355522752
sS'S_bottom'
p2
F2.4396487108347102
sS'average_bottom'
p3
cnumpy.core.multiarray
_reconstruct
p4
(cnumpy
ndarray
p5
(I0
tp6
S'b'
p7
tp8
Rp9
(I1
(I3
tp10
cnumpy
dtype
p11
(S'f8'
p12
I0
I1
tp13
Rp14
(I3
S'<'
p15
NNNI-1
I-1
I0
tp16
bI00
S'\x13_\x82\x9b;\xb7L\xbf\xb1\x12\xb0\x83r.h?\x9a\x1f\x98\x87\r\x02R\xbf'
p17
tp18
bsS'average_top'
p19
g4
(g5
(I0
tp20
g7
tp21
Rp22
(I1
(I3
tp23
g14
I00
S'\xc6w\xd1`\x1csY\xbf\xb1r \xa1\x17\x1am?\xb8\xce\x95O\x123\xc8?'
p24
tp25
bsS'average_total'
p26
g4
(g5
(I0
tp27
g7
tp28
Rp29
(I1
(I3
tp30
g14
I00
S'\x0c[*n\x1b\x0eR\xbfeV\x98`S\xd2i?\xb8\xcd\xcc\xcd\xfc\xe3\xaf?'
p31
tp32
bsS'S_total'
p33
F-4.10249164468803
s.