(dp0
S'S_top'
p1
F-6.694984389455298
sS'S_bottom'
p2
F2.3754623274178197
sS'average_bottom'
p3
cnumpy.core.multiarray
_reconstruct
p4
(cnumpy
ndarray
p5
(I0
tp6
S'b'
p7
tp8
Rp9
(I1
(I3
tp10
cnumpy
dtype
p11
(S'f8'
p12
I0
I1
tp13
Rp14
(I3
S'<'
p15
NNNI-1
I-1
I0
tp16
bI00
S'$\x08Y\xfdL\xabP\xbf\x9e\xa6\x7fW\x8fDh?a>\xd7{\xf8\xf9\x84\xbf'
p17
tp18
bsS'average_top'
p19
g4
(g5
(I0
tp20
g7
tp21
Rp22
(I1
(I3
tp23
g14
I00
S"\xd2)'[\x07\x9b]\xbf\x14\xca\x91G\xe0\xa1m?\x03\xd9\x8fW\x85\xbc\xc6?"
p24
tp25
bsS'average_total'
p26
g4
(g5
(I0
tp27
g7
tp28
Rp29
(I1
(I3
tp30
g14
I00
S'\xeb\xb5\x85\x903\xfbT\xbf=n\xd4\x11T\x0ej?t\xf1\x96\x94\xa2\xd1\xaa?'
p31
tp32
bsS'S_total'
p33
F-4.3195220620374934
s.