(dp0
S'S_top'
p1
F-7.028926267047538
sS'S_bottom'
p2
F2.2436734349479996
sS'average_bottom'
p3
cnumpy.core.multiarray
_reconstruct
p4
(cnumpy
ndarray
p5
(I0
tp6
S'b'
p7
tp8
Rp9
(I1
(I3
tp10
cnumpy
dtype
p11
(S'f8'
p12
I0
I1
tp13
Rp14
(I3
S'<'
p15
NNNI-1
I-1
I0
tp16
bI00
S'\x9d\x99\nM\xfd\x02U\xbf\xf7d\xb0\x13\xbc\xe5g?\x0fR\x81\x89\x9dx\x9b\xbf'
p17
tp18
bsS'average_top'
p19
g4
(g5
(I0
tp20
g7
tp21
Rp22
(I1
(I3
tp23
g14
I00
S"\xf8\xa4\xa3\xf2\x15{b\xbf\xe3>\r\x1bk\xb4n?\x99d[N\xfc'\xc4?"
p24
tp25
bsS'average_total'
p26
g4
(g5
(I0
tp27
g7
tp28
Rp29
(I1
(I3
tp30
g14
I00
S'\xe9\xd2U\x1a\nTZ\xbfi\xa7\xe7\xeb\x9f*j?h\xb0\xefi\xb6\xb7\xa1?'
p31
tp32
bsS'S_total'
p33
F-4.785252832099604
s.