(dp0
S'S_top'
p1
F-7.199015370278252
sS'S_bottom'
p2
F2.185068199050723
sS'average_bottom'
p3
cnumpy.core.multiarray
_reconstruct
p4
(cnumpy
ndarray
p5
(I0
tp6
S'b'
p7
tp8
Rp9
(I1
(I3
tp10
cnumpy
dtype
p11
(S'f8'
p12
I0
I1
tp13
Rp14
(I3
S'<'
p15
NNNI-1
I-1
I0
tp16
bI00
S'\r:T\xe6\x02\x16W\xbf\xc8%\t\x1cs{g?\xef\x96\xaa\xb0{|\xa1\xbf'
p17
tp18
bsS'average_top'
p19
g4
(g5
(I0
tp20
g7
tp21
Rp22
(I1
(I3
tp23
g14
I00
S'\xbc\xd7\x8b$\x19\x07d\xbf$\x1a\xf6\xf6w&o?\xc9\x94]\xc5/\x04\xc3?'
p24
tp25
bsS'average_total'
p26
g4
(g5
(I0
tp27
g7
tp28
Rp29
(I1
(I3
tp30
g14
I00
S'\x13\xdbv\xca\x0f\xbe\\\xbf\xc1K\xbb\xbf\xc8\tj?[\x973\xc8\x0fe\x9b?'
p31
tp32
bsS'S_total'
p33
F-5.013947171227543
s.