(dp0
S'S_top'
p1
F-7.520511181885403
sS'S_bottom'
p2
F2.1008196390980864
sS'average_bottom'
p3
cnumpy.core.multiarray
_reconstruct
p4
(cnumpy
ndarray
p5
(I0
tp6
S'b'
p7
tp8
Rp9
(I1
(I3
tp10
cnumpy
dtype
p11
(S'f8'
p12
I0
I1
tp13
Rp14
(I3
S'<'
p15
NNNI-1
I-1
I0
tp16
bI00
S'\xa35s2}"[\xbf4\'\x9d6\xf4Tf?N+\xfd\x15\x94\xdf\xa7\xbf'
p17
tp18
bsS'average_top'
p19
g4
(g5
(I0
tp20
g7
tp21
Rp22
(I1
(I3
tp23
g14
I00
S'\x14\xc2\x08{!\x89f\xbf\xb7Y?\xb49\xaco?\xbe\xde\xd8\x98\xae\xfa\xc0?'
p24
tp25
bsS'average_total'
p26
g4
(g5
(I0
tp27
g7
tp28
Rp29
(I1
(I3
tp30
g14
I00
S'\xe0\x82\xea\xb0\x88\x8e`\xbf\xd2xA\xc7\tri?\x08b\xca\x1e\x84\xe4\x8a?'
p31
tp32
bsS'S_total'
p33
F-5.419691542787303
s.