(dp0
S'S_top'
p1
F-7.664382411447562
sS'S_bottom'
p2
F2.0776023155630923
sS'average_bottom'
p3
cnumpy.core.multiarray
_reconstruct
p4
(cnumpy
ndarray
p5
(I0
tp6
S'b'
p7
tp8
Rp9
(I1
(I3
tp10
cnumpy
dtype
p11
(S'f8'
p12
I0
I1
tp13
Rp14
(I3
S'<'
p15
NNNI-1
I-1
I0
tp16
bI00
S'#N\x06\xe9\x94*]\xbfV\x1a\xffI\xfb\xa4e?8\xbf\xa2z\xbax\xaa\xbf'
p17
tp18
bsS'average_top'
p19
g4
(g5
(I0
tp20
g7
tp21
Rp22
(I1
(I3
tp23
g14
I00
S'`\xaf[\n\xbf\x8eg\xbf_\x03\xd8+\xc4\xc3o?5\x08\x8e+\xd1\x0f\xc0?'
p24
tp25
bsS'average_total'
p26
g4
(g5
(I0
tp27
g7
tp28
Rp29
(I1
(I3
tp30
g14
I00
S',\x1b\x9dr\x1a\x93a\xbf\xb5\x14\xe6\xd9\x91\x04i?\xd1p\xe7cX$~?'
p31
tp32
bsS'S_total'
p33
F-5.586780095884372
s.