(dp0
S'S_top'
p1
F-7.793428286420392
sS'S_bottom'
p2
F2.0663031624159
sS'average_bottom'
p3
cnumpy.core.multiarray
_reconstruct
p4
(cnumpy
ndarray
p5
(I0
tp6
S'b'
p7
tp8
Rp9
(I1
(I3
tp10
cnumpy
dtype
p11
(S'f8'
p12
I0
I1
tp13
Rp14
(I3
S'<'
p15
NNNI-1
I-1
I0
tp16
bI00
S'+\xf8\xc0\xdb\x9b@_\xbf\x96\x93\xf0\xc6*\xe7d?2\x99\xac|[\xa7\xac\xbf'
p17
tp18
bsS'average_top'
p19
g4
(g5
(I0
tp20
g7
tp21
Rp22
(I1
(I3
tp23
g14
I00
S'\xf0I\x02\xcc\xd1\x80h\xbf\x1b\x0c&\xa1\xf5\xc5o?\x94^\xec\x17tf\xbe?'
p24
tp25
bsS'average_total'
p26
g4
(g5
(I0
tp27
g7
tp28
Rp29
(I1
(I3
tp30
g14
I00
S'41\x02\xb3\xcd\x95b\xbf(S\x1a\xde\xc1\x86h?L<\x85\x86\x11\xa0b?'
p31
tp32
bsS'S_total'
p33
F-5.727125124004542
s.