(dp0
S'S_top'
p1
F-7.906085234408633
sS'S_bottom'
p2
F2.065097876397246
sS'average_bottom'
p3
cnumpy.core.multiarray
_reconstruct
p4
(cnumpy
ndarray
p5
(I0
tp6
S'b'
p7
tp8
Rp9
(I1
(I3
tp10
cnumpy
dtype
p11
(S'f8'
p12
I0
I1
tp13
Rp14
(I3
S'<'
p15
NNNI-1
I-1
I0
tp16
bI00
S'\x1f\x17\xc8\xc0r\xb7`\xbf\xb7\xb9\xf9\xda\xfc\x1cd?\x8c j\x9d\xd9h\xae\xbf'
p17
tp18
bsS'average_top'
p19
g4
(g5
(I0
tp20
g7
tp21
Rp22
(I1
(I3
tp23
g14
I00
S'\x88\x8a\x06\xb6Vqi\xbf\x8a\xec \xa3s\xb6o?Y\xe3{9\xa0\xc5\xbc?'
p24
tp25
bsS'average_total'
p26
g4
(g5
(I0
tp27
g7
tp28
Rp29
(I1
(I3
tp30
g14
I00
S'f4:\x94\x12\xa0c\xbf\x99\xbf\x81!\xcd\xfag?&\x0f\xd1T\xaaxa\xbf'
p31
tp32
bsS'S_total'
p33
F-5.840987358011379
s.