(dp0
S'S_top'
p1
F-8.001614828822037
sS'S_bottom'
p2
F2.071495442954456
sS'average_bottom'
p3
cnumpy.core.multiarray
_reconstruct
p4
(cnumpy
ndarray
p5
(I0
tp6
S'b'
p7
tp8
Rp9
(I1
(I3
tp10
cnumpy
dtype
p11
(S'f8'
p12
I0
I1
tp13
Rp14
(I3
S'<'
p15
NNNI-1
I-1
I0
tp16
bI00
S'C\xd6\xcf\xbf\x03\xdfa\xbf\xe5#\x9cb\xd6Ec?\xdf\x82\xc4\xe3y\xbb\xaf\xbf'
p17
tp18
bsS'average_top'
p19
g4
(g5
(I0
tp20
g7
tp21
Rp22
(I1
(I3
tp23
g14
I00
S'S$\x06\x83Oqj\xbf\x03\xe9\x1ef>\x96o??\x87\xa1\xb5\xee8\xbb?'
p24
tp25
bsS'average_total'
p26
g4
(g5
(I0
tp27
g7
tp28
Rp29
(I1
(I3
tp30
g14
I00
S'\x03\x96\xb0\xdep\xbad\xbf4p\x9e\x9d\xa1`g?\xa5T:\xf2\x06\x0ex\xbf'
p31
tp32
bsS'S_total'
p33
F-5.930119385867599
s.