(dp0
S'S_top'
p1
F-8.141714234290248
sS'S_bottom'
p2
F2.0952568436504975
sS'average_bottom'
p3
cnumpy.core.multiarray
_reconstruct
p4
(cnumpy
ndarray
p5
(I0
tp6
S'b'
p7
tp8
Rp9
(I1
(I3
tp10
cnumpy
dtype
p11
(S'f8'
p12
I0
I1
tp13
Rp14
(I3
S'<'
p15
NNNI-1
I-1
I0
tp16
bI00
S'\xea\xd5\xb1_\xc7fd\xbf\x00v\x89\x0b\xd7ga?\xae\x8e\x81`\x1e\x89\xb0\xbf'
p17
tp18
bsS'average_top'
p19
g4
(g5
(I0
tp20
g7
tp21
Rp22
(I1
(I3
tp23
g14
I00
S'3\xf6\xf3\xdc\xae\xdal\xbf h\xa0\xb2/\x1bo?\x14fL\x06\xb8J\xb8?'
p24
tp25
bsS'average_total'
p26
g4
(g5
(I0
tp27
g7
tp28
Rp29
(I1
(I3
tp30
g14
I00
S'7Z\x1f\x17\x138g\xbf|$T@\xf2\xf8e?C\x9d\x81\xd7\x99i\x87\xbf'
p31
tp32
bsS'S_total'
p33
F-6.046457390639755
s.