(dp0
S'S_top'
p1
F-8.187353183969009
sS'S_bottom'
p2
F2.1061827083970037
sS'average_bottom'
p3
cnumpy.core.multiarray
_reconstruct
p4
(cnumpy
ndarray
p5
(I0
tp6
S'b'
p7
tp8
Rp9
(I1
(I3
tp10
cnumpy
dtype
p11
(S'f8'
p12
I0
I1
tp13
Rp14
(I3
S'<'
p15
NNNI-1
I-1
I0
tp16
bI00
S'\xf8U\xae\xf5p\xc5e\xbf\xe8\xca\r\x06\xb3\\`?\xd6|\xc5\xa2!\x8c\xb0\xbf'
p17
tp18
bsS'average_top'
p19
g4
(g5
(I0
tp20
g7
tp21
Rp22
(I1
(I3
tp23
g14
I00
S'\x98+\x8du<\\n\xbf\xa2\xcb\xba\xa7\xbe\xb5n?\x83\xc2\x8a\x8dy\xe0\xb6?'
p24
tp25
bsS'average_total'
p26
g4
(g5
(I0
tp27
g7
tp28
Rp29
(I1
(I3
tp30
g14
I00
S'%}W\xfd]\xa2h\xbf\xb8\xafY\xc7\t%e?\xc4-\xc89\xa5?\x8b\xbf'
p31
tp32
bsS'S_total'
p33
F-6.081170475572006
s.