(dp0
S'S_top'
p1
F-8.217361255632088
sS'S_bottom'
p2
F2.112440043225951
sS'average_bottom'
p3
cnumpy.core.multiarray
_reconstruct
p4
(cnumpy
ndarray
p5
(I0
tp6
S'b'
p7
tp8
Rp9
(I1
(I3
tp10
cnumpy
dtype
p11
(S'f8'
p12
I0
I1
tp13
Rp14
(I3
S'<'
p15
NNNI-1
I-1
I0
tp16
bI00
S'\xd2`\x1f\xd5\xdb2g\xbf\xdf\xd8*q+{^?~*\xe5\r\xacY\xb0\xbf'
p17
tp18
bsS'average_top'
p19
g4
(g5
(I0
tp20
g7
tp21
Rp22
(I1
(I3
tp23
g14
I00
S"<O(\xb7N\x0ep\xbf\xd2\xa8\x1b\xe2\xe3+n?\\\x00\xea'\ry\xb5?"
p24
tp25
bsS'average_total'
p26
g4
(g5
(I0
tp27
g7
tp28
Rp29
(I1
(I3
tp30
g14
I00
S'\xbe\x08\\,p+j\xbf\xf1$I8\xad7d?\xf1\x97G\xa8\xfb\xf0\x8d\xbf'
p31
tp32
bsS'S_total'
p33
F-6.104921212406143
s.