(dp0
S'S_top'
p1
F-8.231943335785862
sS'S_bottom'
p2
F2.112001764829307
sS'average_bottom'
p3
cnumpy.core.multiarray
_reconstruct
p4
(cnumpy
ndarray
p5
(I0
tp6
S'b'
p7
tp8
Rp9
(I1
(I3
tp10
cnumpy
dtype
p11
(S'f8'
p12
I0
I1
tp13
Rp14
(I3
S'<'
p15
NNNI-1
I-1
I0
tp16
bI00
S'\xcdWP\x10m\xach\xbf\x0c\x0f\x16R\xf8\x15\\?Kll\xb5~\xe7\xaf\xbf'
p17
tp18
bsS'average_top'
p19
g4
(g5
(I0
tp20
g7
tp21
Rp22
(I1
(I3
tp23
g14
I00
S'@\xd0\xfe\xac[\x10q\xbfH:I\xf3\xd6vm?V\x95\xd3ip\x10\xb4?'
p24
tp25
bsS'average_total'
p26
g4
(g5
(I0
tp27
g7
tp28
Rp29
(I1
(I3
tp30
g14
I00
S'\xf4\x02\x01\xe0.\xd3k\xbf\x95E*\x1e\xed.c?"W\xf1\x18\x02\x93\x8f\xbf'
p31
tp32
bsS'S_total'
p33
F-6.119941570956655
s.