(dp0
S'S_top'
p1
F-8.231115568577618
sS'S_bottom'
p2
F2.104170411269355
sS'average_bottom'
p3
cnumpy.core.multiarray
_reconstruct
p4
(cnumpy
ndarray
p5
(I0
tp6
S'b'
p7
tp8
Rp9
(I1
(I3
tp10
cnumpy
dtype
p11
(S'f8'
p12
I0
I1
tp13
Rp14
(I3
S'<'
p15
NNNI-1
I-1
I0
tp16
bI00
S'\x84\xc4\x92y\x190j\xbf\xa1\x85\x98~\xf8\x8bY?\xb9j\xa3B\xee\xb9\xae\xbf'
p17
tp18
bsS'average_top'
p19
g4
(g5
(I0
tp20
g7
tp21
Rp22
(I1
(I3
tp23
g14
I00
S'\x85\xb1\x85\x0eG5r\xbf\xa8\xfeRb!\x92l?E\x02\x8f-;\xa3\xb2?'
p24
tp25
bsS'average_total'
p26
g4
(g5
(I0
tp27
g7
tp28
Rp29
(I1
(I3
tp30
g14
I00
S'\x08\x05HE\xe9\x98m\xbf-\xc03\xec\x05\nb?`\x90\x8fb[\x1e\x90\xbf'
p31
tp32
bsS'S_total'
p33
F-6.126945157308293
s.