(dp0
S'S_top'
p1
F-8.18274576360884
sS'S_bottom'
p2
F2.0705290970150707
sS'average_bottom'
p3
cnumpy.core.multiarray
_reconstruct
p4
(cnumpy
ndarray
p5
(I0
tp6
S'b'
p7
tp8
Rp9
(I1
(I3
tp10
cnumpy
dtype
p11
(S'f8'
p12
I0
I1
tp13
Rp14
(I3
S'<'
p15
NNNI-1
I-1
I0
tp16
bI00
S'\xed\x04\x1b\xf9kPm\xbf\x9c\xf9\xad\x98\xfa\x11T?g8s*cT\xab\xbf'
p17
tp18
bsS'average_top'
p19
g4
(g5
(I0
tp20
g7
tp21
Rp22
(I1
(I3
tp23
g14
I00
S'\xf6\xbb\x82\x8dR\xe5t\xbf\xe9\x92\xc2\x9f\xc08j?\xa6r\xb5\x001e\xaf?'
p24
tp25
bsS'average_total'
p26
g4
(g5
(I0
tp27
g7
tp28
Rp29
(I1
(I3
tp30
g14
I00
S"\xc4\x946\xc6\x93\xbcp\xbf\xa5\xc4\xfcEw\xdc^?Y\x12'N\xef\x04\x8f\xbf"
p31
tp32
bsS'S_total'
p33
F-6.11221666659373
s.