(dp0
S'S_top'
p1
F-8.134971448451918
sS'S_bottom'
p2
F2.04964505621657
sS'average_bottom'
p3
cnumpy.core.multiarray
_reconstruct
p4
(cnumpy
ndarray
p5
(I0
tp6
S'b'
p7
tp8
Rp9
(I1
(I3
tp10
cnumpy
dtype
p11
(S'f8'
p12
I0
I1
tp13
Rp14
(I3
S'<'
p15
NNNI-1
I-1
I0
tp16
bI00
S'\xe9\xcbJ\xac\xa5\xebn\xbfQ\xe0\xeb]\xfe$Q?=\x1dX\xcd\x9b,\xa9\xbf'
p17
tp18
bsS'average_top'
p19
g4
(g5
(I0
tp20
g7
tp21
Rp22
(I1
(I3
tp23
g14
I00
S'y\xdb\xe8Cllv\xbf\xa2L(\x9e\xcc\xcbh?if-\x10\xd3\\\xac?'
p24
tp25
bsS'average_total'
p26
g4
(g5
(I0
tp27
g7
tp28
Rp29
(I1
(I3
tp30
g14
I00
S'\x8c\x1c\xaa\xc9\x04\xc8q\xbf\xdaQ{\x1a\xd7\xf5[?\xbcY\x10\xb4\xaaP\x8d\xbf'
p31
tp32
bsS'S_total'
p33
F-6.085326392235349
s.