(dp0
S'S_top'
p1
F-7.993784522512744
sS'S_bottom'
p2
F2.015996322199392
sS'average_bottom'
p3
cnumpy.core.multiarray
_reconstruct
p4
(cnumpy
ndarray
p5
(I0
tp6
S'b'
p7
tp8
Rp9
(I1
(I3
tp10
cnumpy
dtype
p11
(S'f8'
p12
I0
I1
tp13
Rp14
(I3
S'<'
p15
NNNI-1
I-1
I0
tp16
bI00
S'\xe4`\xce\x7fp\x1cq\xbf\x19LGh;\xe7E?VS\xb7I\x07#\xa4\xbf'
p17
tp18
bsS'average_top'
p19
g4
(g5
(I0
tp20
g7
tp21
Rp22
(I1
(I3
tp23
g14
I00
S'd\xc6\x86~\xf1\xc7y\xbf\x8f\xe6\xce|\x82\x94e?\x01\xe66\x9d\xb0/\xa6?'
p24
tp25
bsS'average_total'
p26
g4
(g5
(I0
tp27
g7
tp28
Rp29
(I1
(I3
tp30
g14
I00
S'\xb1\xc44\xaeD\x00t\xbf]5\xde\xf2\x0f\xb0U?\xef\xb2\x86\x96\xef\x1d\x88\xbf'
p31
tp32
bsS'S_total'
p33
F-5.9777882003133165
s.