(dp0
S'S_top'
p1
F-7.327888969222375
sS'S_bottom'
p2
F2.1337396974634504
sS'average_bottom'
p3
cnumpy.core.multiarray
_reconstruct
p4
(cnumpy
ndarray
p5
(I0
tp6
S'b'
p7
tp8
Rp9
(I1
(I3
tp10
cnumpy
dtype
p11
(S'f8'
p12
I0
I1
tp13
Rp14
(I3
S'<'
p15
NNNI-1
I-1
I0
tp16
bI00
S'\x94\x0e{\n:\x9ev\xbf\x0b\xcbL\xc8\xab\xc0A\xbf\xd5G\xc0h\xa7-r\xbf'
p17
tp18
bsS'average_top'
p19
g4
(g5
(I0
tp20
g7
tp21
Rp22
(I1
(I3
tp23
g14
I00
S'\xb6-B\xc4\xb6\x85\x82\xbf\x06\x12V\x86\x16lU?\x9f\xe6N\x8a\xf0\xce\x85?'
p24
tp25
bsS'average_total'
p26
g4
(g5
(I0
tp27
g7
tp28
Rp29
(I1
(I3
tp30
g14
I00
S'\xa5\xabr\xbcHm{\xbf\xfc\x8b;T\xe6\x91\x13?\xa3\xc7u\x18\xdc[C?'
p31
tp32
bsS'S_total'
p33
F-5.194149271758984
s.