(dp0
S'S_top'
p1
F-7.204319180359148
sS'S_bottom'
p2
F2.1923439482540807
sS'average_bottom'
p3
cnumpy.core.multiarray
_reconstruct
p4
(cnumpy
ndarray
p5
(I0
tp6
S'b'
p7
tp8
Rp9
(I1
(I3
tp10
cnumpy
dtype
p11
(S'f8'
p12
I0
I1
tp13
Rp14
(I3
S'<'
p15
NNNI-1
I-1
I0
tp16
bI00
S'\xe8\x85\xdc-\x1e\xa3w\xbf\xf7\xc7\x1e{\xf5\x16H\xbf\x86\xb6\xf5F\x83\xb3U?'
p17
tp18
bsS'average_top'
p19
g4
(g5
(I0
tp20
g7
tp21
Rp22
(I1
(I3
tp23
g14
I00
S'\xb6Y\xa7r\x06w\x83\xbf\xdbu\xff \xa0\x9fQ?\x01\xb7\xa6N\xcd\xe7z?'
p24
tp25
bsS'average_total'
p26
g4
(g5
(I0
tp27
g7
tp28
Rp29
(I1
(I3
tp30
g14
I00
S'Y\xc9\x04\xcd\x15\xbc|\xbf$c\xc7\x8ea>!\xbfn\x13GG\xad+i?'
p31
tp32
bsS'S_total'
p33
F-5.011975232105048
s.