(dp0
S'S_top'
p1
F-7.081643137530685
sS'S_bottom'
p2
F2.2617320377081787
sS'average_bottom'
p3
cnumpy.core.multiarray
_reconstruct
p4
(cnumpy
ndarray
p5
(I0
tp6
S'b'
p7
tp8
Rp9
(I1
(I3
tp10
cnumpy
dtype
p11
(S'f8'
p12
I0
I1
tp13
Rp14
(I3
S'<'
p15
NNNI-1
I-1
I0
tp16
bI00
S'bl\xe0\x9a\x16\xaex\xbf\xca\x88\xfc\xda\x051N\xbf\xdd\x80\xe0~\x18<|?'
p17
tp18
bsS'average_top'
p19
g4
(g5
(I0
tp20
g7
tp21
Rp22
(I1
(I3
tp23
g14
I00
S'j\xb10f\xc0d\x84\xbf!h=\x06\x13\x84K?\xf3\x8dbGK\x02i?'
p24
tp25
bsS'average_total'
p26
g4
(g5
(I0
tp27
g7
tp28
Rp29
(I1
(I3
tp30
g14
I00
S'\xee\xc1_\x94\x8c\x0c~\xbf\xeaN\x9d5d\xe95\xbf\xd7sO<\xca\xfdv?'
p31
tp32
bsS'S_total'
p33
F-4.819911099822492
s.