(dp0
S'S_top'
p1
F-6.960669512494054
sS'S_bottom'
p2
F2.341614200120695
sS'average_bottom'
p3
cnumpy.core.multiarray
_reconstruct
p4
(cnumpy
ndarray
p5
(I0
tp6
S'b'
p7
tp8
Rp9
(I1
(I3
tp10
cnumpy
dtype
p11
(S'f8'
p12
I0
I1
tp13
Rp14
(I3
S'<'
p15
NNNI-1
I-1
I0
tp16
bI00
S"9)N\xe9\x8f\xbdy\xbf\x02Y\xedY-\x02R\xbf\xde'$)F\x05\x89?"
p17
tp18
bsS'average_top'
p19
g4
(g5
(I0
tp20
g7
tp21
Rp22
(I1
(I3
tp23
g14
I00
S'\x87HV\xa6&N\x85\xbfssU\xefr\xa0C?\x12D\xd7\x16-\x10"?'
p24
tp25
bsS'average_total'
p26
g4
(g5
(I0
tp27
g7
tp28
Rp29
(I1
(I3
tp30
g14
I00
S'\xe2\xe3\xa9|!]\x7f\xbf\xec\x90\xf1\xad\x1fxA\xbf9\x01]\x93H\xc6\x80?'
p31
tp32
bsS'S_total'
p33
F-4.619055312373355
s.