(dp0
S'S_top'
p1
F1.8272587024371503
sS'S_bottom'
p2
F4.3549161211890395
sS'average_bottom'
p3
cnumpy.core.multiarray
_reconstruct
p4
(cnumpy
ndarray
p5
(I0
tp6
S'b'
p7
tp8
Rp9
(I1
(I3
tp10
cnumpy
dtype
p11
(S'f8'
p12
I0
I1
tp13
Rp14
(I3
S'<'
p15
NNNI-1
I-1
I0
tp16
bI00
S'\x9dL\x05~ZA\n?wn\xdb<\x9d7\xeb\xbeu\x15b\x04\xba\x0f\xed?'
p17
tp18
bsS'average_top'
p19
g4
(g5
(I0
tp20
g7
tp21
Rp22
(I1
(I3
tp23
g14
I00
S"\x94!\x17@09\x15\xbf\x95\xb2\xd3'\x05\xc9\x07?\xda\x8f[d,\xba\xed?"
p24
tp25
bsS'average_total'
p26
g4
(g5
(I0
tp27
g7
tp28
Rp29
(I1
(I3
tp30
g14
I00
S"6'\xfa\xae\x94\xd6\xda>\xcf!\xc07\x12#\xdb>S\x1a\xdf\xb1\x8aH\xed?"
p31
tp32
bsS'S_total'
p33
F6.182174823626247
s.