(dp0
S'S_top'
p1
F-6.370041956841908
sS'S_bottom'
p2
F2.9033837704476415
sS'average_bottom'
p3
cnumpy.core.multiarray
_reconstruct
p4
(cnumpy
ndarray
p5
(I0
tp6
S'b'
p7
tp8
Rp9
(I1
(I3
tp10
cnumpy
dtype
p11
(S'f8'
p12
I0
I1
tp13
Rp14
(I3
S'<'
p15
NNNI-1
I-1
I0
tp16
bI00
S'\xe6/\xd1\xa4#\t\x7f\xbfv\x91.o\xd32^\xbfz\xb8lM\xe0Z\xa1?'
p17
tp18
bsS'average_top'
p19
g4
(g5
(I0
tp20
g7
tp21
Rp22
(I1
(I3
tp23
g14
I00
S'>\xff,"\xf7\x91\x89\xbf1\x89\xeb>\xa2\xc8F\xbf\x1d\xae{\x90\x04\x9at\xbf'
p24
tp25
bsS'average_total'
p26
g4
(g5
(I0
tp27
g7
tp28
Rp29
(I1
(I3
tp30
g14
I00
S'\xd3;\xed\x89\\\xde\x82\xbf"\xf0\x8c\x8c\x00\xeeW\xbf\x8f\xd0\x85-\\l\x95?'
p31
tp32
bsS'S_total'
p33
F-3.4666581863942794
s.