(dp0
S'S_top'
p1
F-6.090295075329883
sS'S_bottom'
p2
F3.2351287904665633
sS'average_bottom'
p3
cnumpy.core.multiarray
_reconstruct
p4
(cnumpy
ndarray
p5
(I0
tp6
S'b'
p7
tp8
Rp9
(I1
(I3
tp10
cnumpy
dtype
p11
(S'f8'
p12
I0
I1
tp13
Rp14
(I3
S'<'
p15
NNNI-1
I-1
I0
tp16
bI00
S"C8v\x9c\xc4\x80\x80\xbf^um\x85'\x06a\xbf\xf5\x0cdz\xc2i\xa4?"
p17
tp18
bsS'average_top'
p19
g4
(g5
(I0
tp20
g7
tp21
Rp22
(I1
(I3
tp23
g14
I00
S'\x8a%Q\xa8\xe7!\x8b\xbf\xfe\xed\xaa\x96\xf8\xa8T\xbfL\x9f`\xd0L\xdcg\xbf'
p24
tp25
bsS'average_total'
p26
g4
(g5
(I0
tp27
g7
tp28
Rp29
(I1
(I3
tp30
g14
I00
S'=Rdy\xce\x0b\x84\xbf\x12\xf3\xab.\xdf\x95]\xbf!\xe0|D29\x9a?'
p31
tp32
bsS'S_total'
p33
F-2.85516628486329
s.