(dp0
S'S_top'
p1
F-5.3975056755997395
sS'S_bottom'
p2
F3.9841904902073835
sS'average_bottom'
p3
cnumpy.core.multiarray
_reconstruct
p4
(cnumpy
ndarray
p5
(I0
tp6
S'b'
p7
tp8
Rp9
(I1
(I3
tp10
cnumpy
dtype
p11
(S'f8'
p12
I0
I1
tp13
Rp14
(I3
S'<'
p15
NNNI-1
I-1
I0
tp16
bI00
S'\xddE\xb4\xa1\x8c\xca\x81\xbf\x0c\xb3\xd7H}\xa9c\xbf1H\x90\xea\xc4v\xa7?'
p17
tp18
bsS'average_top'
p19
g4
(g5
(I0
tp20
g7
tp21
Rp22
(I1
(I3
tp23
g14
I00
S'\xcc#7\xbfnO\x8d\xbfA\xd9\xad\xefv\x91a\xbf\xa7i`\x1d\x03\xa9p?'
p24
tp25
bsS'average_total'
p26
g4
(g5
(I0
tp27
g7
tp28
Rp29
(I1
(I3
tp30
g14
I00
S'\x9b\x84\xe0\xb2\x80\xa1\x85\xbf\x1fK0\xdc\xd0\xf6b\xbfyCXf<V\xa0?'
p31
tp32
bsS'S_total'
p33
F-1.4133151853924297
s.