(dp0
S'S_top'
p1
F-5.101802887819785
sS'S_bottom'
p2
F4.259399476805399
sS'average_bottom'
p3
cnumpy.core.multiarray
_reconstruct
p4
(cnumpy
ndarray
p5
(I0
tp6
S'b'
p7
tp8
Rp9
(I1
(I3
tp10
cnumpy
dtype
p11
(S'f8'
p12
I0
I1
tp13
Rp14
(I3
S'<'
p15
NNNI-1
I-1
I0
tp16
bI00
S'x\xf5\xa7U\xbb!\x82\xbfA\xd9\xd0\xc0g\xa3d\xbfv(!\xc5\xce\x17\xa8?'
p17
tp18
bsS'average_top'
p19
g4
(g5
(I0
tp20
g7
tp21
Rp22
(I1
(I3
tp23
g14
I00
S'3\xa6*L\xb2\xfc\x8d\xbf\xe4\xa77WV\xe6c\xbfL9\xfe\xf9\xe9\xbd}?'
p24
tp25
bsS'average_total'
p26
g4
(g5
(I0
tp27
g7
tp28
Rp29
(I1
(I3
tp30
g14
I00
S'T{\xc3\xf5`\x15\x86\xbf6iN\x13bdd\xbf\xc2u\xd5\xbf!M\xa1?'
p31
tp32
bsS'S_total'
p33
F-0.8424034110143827
s.