(dp0
S'S_top'
p1
F1.9735838386502542
sS'S_bottom'
p2
F4.48893210844107
sS'average_bottom'
p3
cnumpy.core.multiarray
_reconstruct
p4
(cnumpy
ndarray
p5
(I0
tp6
S'b'
p7
tp8
Rp9
(I1
(I3
tp10
cnumpy
dtype
p11
(S'f8'
p12
I0
I1
tp13
Rp14
(I3
S'<'
p15
NNNI-1
I-1
I0
tp16
bI00
S'r\t\xac.%\xc0\t?q\x8f\x85\\\xa4C\xe2\xbee]\x94Z\xe7\xd7\xec?'
p17
tp18
bsS'average_top'
p19
g4
(g5
(I0
tp20
g7
tp21
Rp22
(I1
(I3
tp23
g14
I00
S'&2Z\xcfH\xcf\x17\xbf\xbb\x06k\xc7\xb0\x85\x05?j]\xb8\x97~e\xed?'
p24
tp25
bsS'average_total'
p26
g4
(g5
(I0
tp27
g7
tp28
Rp29
(I1
(I3
tp30
g14
I00
S'Nu\xe04\xa2\xb4\xc4>\xf4/`\xf0\x16\x85\xe0>\xfd\xc5\x0f\xac\x19\x07\xed?'
p31
tp32
bsS'S_total'
p33
F6.4625159470913465
s.