(dp0
S'S_top'
p1
F-4.550409157607181
sS'S_bottom'
p2
F4.898007811827039
sS'average_bottom'
p3
cnumpy.core.multiarray
_reconstruct
p4
(cnumpy
ndarray
p5
(I0
tp6
S'b'
p7
tp8
Rp9
(I1
(I3
tp10
cnumpy
dtype
p11
(S'f8'
p12
I0
I1
tp13
Rp14
(I3
S'<'
p15
NNNI-1
I-1
I0
tp16
bI00
S'c\xe2r9\x8d\xbc\x82\xbf\xa4&<&|\xdek\xbf\x1a\xcf*\xbdS\xa0\xa8?'
p17
tp18
bsS'average_top'
p19
g4
(g5
(I0
tp20
g7
tp21
Rp22
(I1
(I3
tp23
g14
I00
S'\xc7\x88\xc4\xe3\x86\x8d\x90\xbf\xe98 WR\xecl\xbf\xa3yF~\xce\xd2\x9b?'
p24
tp25
bsS'average_total'
p26
g4
(g5
(I0
tp27
g7
tp28
Rp29
(I1
(I3
tp30
g14
I00
S'\xac\xc5\xf2\x9d\xb5\x86\x87\xbf:PZ\x08n8l\xbfLV\xe8\xbd\x06\x0e\xa5?'
p31
tp32
bsS'S_total'
p33
F0.347598654219823
s.