(dp0
S'S_top'
p1
F-4.553471898745054
sS'S_bottom'
p2
F5.140756734163112
sS'average_bottom'
p3
cnumpy.core.multiarray
_reconstruct
p4
(cnumpy
ndarray
p5
(I0
tp6
S'b'
p7
tp8
Rp9
(I1
(I3
tp10
cnumpy
dtype
p11
(S'f8'
p12
I0
I1
tp13
Rp14
(I3
S'<'
p15
NNNI-1
I-1
I0
tp16
bI00
S'\xb5\x05\xf1\xa1*M\x82\xbf][5\xc3\xfb\xa7p\xbf\xa5\xbexc\x8a^\xa7?'
p17
tp18
bsS'average_top'
p19
g4
(g5
(I0
tp20
g7
tp21
Rp22
(I1
(I3
tp23
g14
I00
S'\xf7Y0\xac\x96U\x91\xbf#K\xa5*\x8a#p\xbf$\xdc)\xfb\xa2y\xa4?'
p24
tp25
bsS'average_total'
p26
g4
(g5
(I0
tp27
g7
tp28
Rp29
(I1
(I3
tp30
g14
I00
S'\x93\xf4\x04g\xd3\xc1\x87\xbf\xa6\x84Z\xfc\xd5{p\xbfG\xfd\xd4\x14\x93g\xa6?'
p31
tp32
bsS'S_total'
p33
F0.5872848354180783
s.