(dp0
S'S_top'
p1
F-4.655423286452562
sS'S_bottom'
p2
F5.398939087314536
sS'average_bottom'
p3
cnumpy.core.multiarray
_reconstruct
p4
(cnumpy
ndarray
p5
(I0
tp6
S'b'
p7
tp8
Rp9
(I1
(I3
tp10
cnumpy
dtype
p11
(S'f8'
p12
I0
I1
tp13
Rp14
(I3
S'<'
p15
NNNI-1
I-1
I0
tp16
bI00
S'\xd4\x88\x83L\xdb+\x81\xbf\x87\x9a^\xd5.\xc6t\xbf\xdb\x14E$\x8c\x12\xa5?'
p17
tp18
bsS'average_top'
p19
g4
(g5
(I0
tp20
g7
tp21
Rp22
(I1
(I3
tp23
g14
I00
S'\xe5\xd1\xff5\xd4;\x92\xbf\xcb\xa2\xd3\x89\x0bLq\xbfr\x8f\x94!m\x1f\xac?'
p24
tp25
bsS'average_total'
p26
g4
(g5
(I0
tp27
g7
tp28
Rp29
(I1
(I3
tp30
g14
I00
S'=fJ\xb4q\x9a\x87\xbf2\xef0\xffx\x9ds\xbf\xe9\n\xd3C+l\xa7?'
p31
tp32
bsS'S_total'
p33
F0.7435158008619939
s.