(dp0
S'S_top'
p1
F-4.781851737718081
sS'S_bottom'
p2
F5.5357724158244235
sS'average_bottom'
p3
cnumpy.core.multiarray
_reconstruct
p4
(cnumpy
ndarray
p5
(I0
tp6
S'b'
p7
tp8
Rp9
(I1
(I3
tp10
cnumpy
dtype
p11
(S'f8'
p12
I0
I1
tp13
Rp14
(I3
S'<'
p15
NNNI-1
I-1
I0
tp16
bI00
S'\x9f\xa6\xdb$z\x11\x80\xbf\x82=]\x97?)x\xbf\x86\xa9D[w\xa4\xa3?'
p17
tp18
bsS'average_top'
p19
g4
(g5
(I0
tp20
g7
tp21
Rp22
(I1
(I3
tp23
g14
I00
S'\x0c\x1f\x1cL|\xe6\x92\xbf=d)\xe7\tdq\xbfQ\x1b\xda\xa3".\xb0?'
p24
tp25
bsS'average_total'
p26
g4
(g5
(I0
tp27
g7
tp28
Rp29
(I1
(I3
tp30
g14
I00
S'\xa7\xf7\x85\xe8\xf5O\x87\xbf\xf7\xe9\xe9/\x84\xe7u\xbf\xd699\xd2\xb9\xe1\xa7?'
p31
tp32
bsS'S_total'
p33
F0.7539206781062927
s.