(dp0
S'S_top'
p1
F-4.8287724815816615
sS'S_bottom'
p2
F5.570941493626892
sS'average_bottom'
p3
cnumpy.core.multiarray
_reconstruct
p4
(cnumpy
ndarray
p5
(I0
tp6
S'b'
p7
tp8
Rp9
(I1
(I3
tp10
cnumpy
dtype
p11
(S'f8'
p12
I0
I1
tp13
Rp14
(I3
S'<'
p15
NNNI-1
I-1
I0
tp16
bI00
S'3\x85\x039\xecY\x7f\xbfy+\xf5}\x9eNy\xbf!\t\x0f\xd6]P\xa3?'
p17
tp18
bsS'average_top'
p19
g4
(g5
(I0
tp20
g7
tp21
Rp22
(I1
(I3
tp23
g14
I00
S'{\xeb\xd7/\xb2"\x93\xbf\x1a\x84V\xf7\xcf\\q\xbf\xf4\x9f\x0f\xcbg\xb8\xb0?'
p24
tp25
bsS'average_total'
p26
g4
(g5
(I0
tp27
g7
tp28
Rp29
(I1
(I3
tp30
g14
I00
S'(h\xa2\xff\x165\x87\xbf]\xc0\xcfW\xb0\xa8v\xbf\x05\xc3+\xab\xd6\x05\xa8?'
p31
tp32
bsS'S_total'
p33
F0.7421690120452391
s.