(dp0
S'S_top'
p1
F-5.115891673534273
sS'S_bottom'
p2
F5.695161243803282
sS'average_bottom'
p3
cnumpy.core.multiarray
_reconstruct
p4
(cnumpy
ndarray
p5
(I0
tp6
S'b'
p7
tp8
Rp9
(I1
(I3
tp10
cnumpy
dtype
p11
(S'f8'
p12
I0
I1
tp13
Rp14
(I3
S'<'
p15
NNNI-1
I-1
I0
tp16
bI00
S'j*e\xd1f\xc4z\xbf\t;\x9au\x81\x06\x80\xbf\xe7\xbb|\x9c\x12\xa1\xa3?'
p17
tp18
bsS'average_top'
p19
g4
(g5
(I0
tp20
g7
tp21
Rp22
(I1
(I3
tp23
g14
I00
S'\xf8[M\x0c\x89\x99\x94\xbf"3\x0b\x05j\x03r\xbf\x082?\xb4\xceN\xb2?'
p24
tp25
bsS'average_total'
p26
g4
(g5
(I0
tp27
g7
tp28
Rp29
(I1
(I3
tp30
g14
I00
S"X\xf1\x046\xce\xa7\x86\xbf\x94n&\xb0'_{\xbfz\xdf\x9fM\x93J\xa9?"
p31
tp32
bsS'S_total'
p33
F0.5792695702689636
s.