(dp0
S'S_top'
p1
F-5.163788497294211
sS'S_bottom'
p2
F5.702695576357008
sS'average_bottom'
p3
cnumpy.core.multiarray
_reconstruct
p4
(cnumpy
ndarray
p5
(I0
tp6
S'b'
p7
tp8
Rp9
(I1
(I3
tp10
cnumpy
dtype
p11
(S'f8'
p12
I0
I1
tp13
Rp14
(I3
S'<'
p15
NNNI-1
I-1
I0
tp16
bI00
S'KE5\x84\x80\x1fz\xbf\x8e\xca$=1\x93\x80\xbf\xa8\x9am\x12h\x1b\xa4?'
p17
tp18
bsS'average_top'
p19
g4
(g5
(I0
tp20
g7
tp21
Rp22
(I1
(I3
tp23
g14
I00
S'\xc0o\xc1>1\xd1\x94\xbf\xdf\xa2Y\x9a\xc0ar\xbfM\xd3 \x9b\xddW\xb2?'
p24
tp25
bsS'average_total'
p26
g4
(g5
(I0
tp27
g7
tp28
Rp29
(I1
(I3
tp30
g14
I00
S'4W\x19r\xf1\x95\x86\xbf\xb0\x8c\xfb\x0b/:|\xbf\xe4lW\x9d+\xa2\xa9?'
p31
tp32
bsS'S_total'
p33
F0.5389070790628113
s.