(dp0
S'S_top'
p1
F2.2832687775042166
sS'S_bottom'
p2
F4.68312820023232
sS'average_bottom'
p3
cnumpy.core.multiarray
_reconstruct
p4
(cnumpy
ndarray
p5
(I0
tp6
S'b'
p7
tp8
Rp9
(I1
(I3
tp10
cnumpy
dtype
p11
(S'f8'
p12
I0
I1
tp13
Rp14
(I3
S'<'
p15
NNNI-1
I-1
I0
tp16
bI00
S'WY\xe4\xaaC\xb2\t?\xf3N\x89\xb3\xad\xc7\xc4\xbe\x7f\xbbWg\x06w\xec?'
p17
tp18
bsS'average_top'
p19
g4
(g5
(I0
tp20
g7
tp21
Rp22
(I1
(I3
tp23
g14
I00
S'\xe6\xa3\xf2"v;\x1e\xbf\xb6\xae.\x01oO\xfa>@5`\x85\xe4\x9e\xec?'
p24
tp25
bsS'average_total'
p26
g4
(g5
(I0
tp27
g7
tp28
Rp29
(I1
(I3
tp30
g14
I00
S"\xc8N|4\x970\xd8\xbe\xf7\xb4 QF'\xdc>\xdd\xe8\x87jP\x84\xec?"
p31
tp32
bsS'S_total'
p33
F6.966396977736558
s.