(dp0
S'S_top'
p1
F-5.211141864055322
sS'S_bottom'
p2
F5.7069443694495945
sS'average_bottom'
p3
cnumpy.core.multiarray
_reconstruct
p4
(cnumpy
ndarray
p5
(I0
tp6
S'b'
p7
tp8
Rp9
(I1
(I3
tp10
cnumpy
dtype
p11
(S'f8'
p12
I0
I1
tp13
Rp14
(I3
S'<'
p15
NNNI-1
I-1
I0
tp16
bI00
S'{\x9e\xab\x08A\x8by\xbf\x8f\xcf;\x87n \x81\xbf\xd5\xad:\xffi\xb5\xa4?'
p17
tp18
bsS'average_top'
p19
g4
(g5
(I0
tp20
g7
tp21
Rp22
(I1
(I3
tp23
g14
I00
S'\x0e]2Vf\x04\x95\xbf*\xaaG\x9b\xb1\xd5r\xbf\x0f~\x84\xa3\xf3T\xb2?'
p24
tp25
bsS'average_total'
p26
g4
(g5
(I0
tp27
g7
tp28
Rp29
(I1
(I3
tp30
g14
I00
S" \xb4U:\xaa\x86\x86\xbf\\s\x94\x8b&\x1d}\xbf\t\xd5'\\\xe6\x06\xaa?"
p31
tp32
bsS'S_total'
p33
F0.4958025053942856
s.