(dp0
S'S_top'
p1
F-5.257358986086924
sS'S_bottom'
p2
F5.708235031155458
sS'average_bottom'
p3
cnumpy.core.multiarray
_reconstruct
p4
(cnumpy
ndarray
p5
(I0
tp6
S'b'
p7
tp8
Rp9
(I1
(I3
tp10
cnumpy
dtype
p11
(S'f8'
p12
I0
I1
tp13
Rp14
(I3
S'<'
p15
NNNI-1
I-1
I0
tp16
bI00
S'\x9d%9\xfc\xc6\ty\xbf?\x96\xd7\x1bV\xaf\x81\xbf(\x8af\xc6\x9dn\xa5?'
p17
tp18
bsS'average_top'
p19
g4
(g5
(I0
tp20
g7
tp21
Rp22
(I1
(I3
tp23
g14
I00
S'\x1fh\x83\x1b\xc02\x95\xbf\xdf\xe7\xedNV]s\xbfw\xcbb\xc2\xf7G\xb2?'
p24
tp25
bsS'average_total'
p26
g4
(g5
(I0
tp27
g7
tp28
Rp29
(I1
(I3
tp30
g14
I00
S'R\x9f\x1e\xf4gz\x86\xbff\x82N\xa7\xe7\x08~\xbf\xa4\xe1\xfcn\xb6y\xaa?'
p31
tp32
bsS'S_total'
p33
F0.4508760450685741
s.