(dp0
S'S_top'
p1
F-5.301819721916454
sS'S_bottom'
p2
F5.70692835968229
sS'average_bottom'
p3
cnumpy.core.multiarray
_reconstruct
p4
(cnumpy
ndarray
p5
(I0
tp6
S'b'
p7
tp8
Rp9
(I1
(I3
tp10
cnumpy
dtype
p11
(S'f8'
p12
I0
I1
tp13
Rp14
(I3
S'<'
p15
NNNI-1
I-1
I0
tp16
bI00
S'\xf7%\xfb)k\x9cx\xbfE\xb7l\xeb\x1bA\x82\xbf$\xa3\x92\x03WF\xa6?'
p17
tp18
bsS'average_top'
p19
g4
(g5
(I0
tp20
g7
tp21
Rp22
(I1
(I3
tp23
g14
I00
S'\xdd\xc9<\xa6!\\\x95\xbf\x84\x96\xb3m\xaf\xf5s\xbf\x99\x92D4\xb92\xb2?'
p24
tp25
bsS'average_total'
p26
g4
(g5
(I0
tp27
g7
tp28
Rp29
(I1
(I3
tp30
g14
I00
S'\xc0hUH\x8aq\x86\xbf\xcb\xf8~3\r\xfe~\xbf\xe7\x0c\x8c\xba]\xfb\xaa?'
p31
tp32
bsS'S_total'
p33
F0.40510863776581196
s.