(dp0
S'S_top'
p1
F2.4442926452612332
sS'S_bottom'
p2
F4.74752214781456
sS'average_bottom'
p3
cnumpy.core.multiarray
_reconstruct
p4
(cnumpy
ndarray
p5
(I0
tp6
S'b'
p7
tp8
Rp9
(I1
(I3
tp10
cnumpy
dtype
p11
(S'f8'
p12
I0
I1
tp13
Rp14
(I3
S'<'
p15
NNNI-1
I-1
I0
tp16
bI00
S"\nF^\x0eH\n\x0b?\xd1\x91\x94'\x87\xbe\x89>\xe4\xd0\xf1aqN\xec?"
p17
tp18
bsS'average_top'
p19
g4
(g5
(I0
tp20
g7
tp21
Rp22
(I1
(I3
tp23
g14
I00
S'\xea-@\x92\x0c\x03!\xbfd\xe5\xef\xc7\x04\xe4\xe9>\xbb$\x88i"-\xec?'
p24
tp25
bsS'average_total'
p26
g4
(g5
(I0
tp27
g7
tp28
Rp29
(I1
(I3
tp30
g14
I00
S'\x04\xdf\r\xceA\x9f\xe2\xbeP0\xc2\x9c\xf2\xcb\xd1>e5\xd7\x14WC\xec?'
p31
tp32
bsS'S_total'
p33
F7.191814793075724
s.