(dp0
S'S_top'
p1
F-5.675014359591895
sS'S_bottom'
p2
F5.80746439958318
sS'average_bottom'
p3
cnumpy.core.multiarray
_reconstruct
p4
(cnumpy
ndarray
p5
(I0
tp6
S'b'
p7
tp8
Rp9
(I1
(I3
tp10
cnumpy
dtype
p11
(S'f8'
p12
I0
I1
tp13
Rp14
(I3
S'<'
p15
NNNI-1
I-1
I0
tp16
bI00
S'oz\x10}\xd3\xfb\x80\xbf\xc2\xb6\x92\xa0\x9b\x0b\x92\xbfHO]\x1c\x1a\xd8\xbf?'
p17
tp18
bsS'average_top'
p19
g4
(g5
(I0
tp20
g7
tp21
Rp22
(I1
(I3
tp23
g14
I00
S'\xfe\xcdAq\\\x9f\x96\xbf1\xc1\xf7\xc6|zz\xbf\xcc\x14Im\x864\xb1?'
p24
tp25
bsS'average_total'
p26
g4
(g5
(I0
tp27
g7
tp28
Rp29
(I1
(I3
tp30
g14
I00
S'P\xe1bspg\x8a\xbfC\x12\x13\x8b=y\x8c\xbf\x9e\xfcZc\xeb\xf6\xba?'
p31
tp32
bsS'S_total'
p33
F0.13245003999130495
s.