(dp0
S'S_top'
p1
F-5.626222575544848
sS'S_bottom'
p2
F6.282596368842947
sS'average_bottom'
p3
cnumpy.core.multiarray
_reconstruct
p4
(cnumpy
ndarray
p5
(I0
tp6
S'b'
p7
tp8
Rp9
(I1
(I3
tp10
cnumpy
dtype
p11
(S'f8'
p12
I0
I1
tp13
Rp14
(I3
S'<'
p15
NNNI-1
I-1
I0
tp16
bI00
S'P\xfb\xddB\x06P\x87\xbf^\xf7u\x1dl{\x95\xbf`\x96\xfa8\xa8\x96\xc4?'
p17
tp18
bsS'average_top'
p19
g4
(g5
(I0
tp20
g7
tp21
Rp22
(I1
(I3
tp23
g14
I00
S">\x03Zj'a\x97\xbfJ\xbaj\x06\x7fZv\xbf\xf3\n\x98\xad\xde\xda\xb2?"
p24
tp25
bsS'average_total'
p26
g4
(g5
(I0
tp27
g7
tp28
Rp29
(I1
(I3
tp30
g14
I00
S'\xf1:\xee\x1a\xc5 \x8f\xbf\x92`*\xb7*/\x90\xbfM\xff\x8f\xd6A\xde\xc0?'
p31
tp32
bsS'S_total'
p33
F0.6563737932980872
s.