(dp0
S'S_top'
p1
F-5.572159764873
sS'S_bottom'
p2
F8.35209428466465
sS'average_bottom'
p3
cnumpy.core.multiarray
_reconstruct
p4
(cnumpy
ndarray
p5
(I0
tp6
S'b'
p7
tp8
Rp9
(I1
(I3
tp10
cnumpy
dtype
p11
(S'f8'
p12
I0
I1
tp13
Rp14
(I3
S'<'
p15
NNNI-1
I-1
I0
tp16
bI00
S"\xc8\xa7\xb9\xe8\x07N\x96\xbf\xea\xb24_\xfad\x98\xbf\x01(0Cc'\xcc?"
p17
tp18
bsS'average_top'
p19
g4
(g5
(I0
tp20
g7
tp21
Rp22
(I1
(I3
tp23
g14
I00
S'Ksp<:\x9b\x9b\xbf\xd4\x12.\xb7@Ij\xbf\xecY\xef\xbd\xe0\x8c\xb8?'
p24
tp25
bsS'average_total'
p26
g4
(g5
(I0
tp27
g7
tp28
Rp29
(I1
(I3
tp30
g14
I00
S'\xd5\xdf\\\x1cm\x12\x98\xbf\xc0(\xe6\xe3\xb7[\x91\xbfi/rYj\xdc\xc6?'
p31
tp32
bsS'S_total'
p33
F2.7799345197916057
s.