(dp0
S'S_top'
p1
F-5.570787171208577
sS'S_bottom'
p2
F9.151685454084099
sS'average_bottom'
p3
cnumpy.core.multiarray
_reconstruct
p4
(cnumpy
ndarray
p5
(I0
tp6
S'b'
p7
tp8
Rp9
(I1
(I3
tp10
cnumpy
dtype
p11
(S'f8'
p12
I0
I1
tp13
Rp14
(I3
S'<'
p15
NNNI-1
I-1
I0
tp16
bI00
S'`\xa5\xb0\x99:\x16\x99\xbf\\\x9e^\xfeYB\x97\xbf\nXUL\xf1\x15\xcd?'
p17
tp18
bsS'average_top'
p19
g4
(g5
(I0
tp20
g7
tp21
Rp22
(I1
(I3
tp23
g14
I00
S'\xa0\\l\x1b\xa0\x98\x9d\xbf\x891d\x0f\x9a[e\xbfG\x16\xedWU%\xba?'
p24
tp25
bsS'average_total'
p26
g4
(g5
(I0
tp27
g7
tp28
Rp29
(I1
(I3
tp30
g14
I00
S'\x08\x15\xb5T\x06\x97\x9a\xbfw\xf9D\xf0ee\x90\xbf\xcd\xd7\xbf)\x87\xbf\xc7?'
p31
tp32
bsS'S_total'
p33
F3.580898282875511
s.