(dp0
S'S_top'
p1
F-5.5363697103300975
sS'S_bottom'
p2
F10.362226999140344
sS'average_bottom'
p3
cnumpy.core.multiarray
_reconstruct
p4
(cnumpy
ndarray
p5
(I0
tp6
S'b'
p7
tp8
Rp9
(I1
(I3
tp10
cnumpy
dtype
p11
(S'f8'
p12
I0
I1
tp13
Rp14
(I3
S'<'
p15
NNNI-1
I-1
I0
tp16
bI00
S"'\x13]\xce_\xa9\x9b\xbf\xadj?\xa7\xd9M\x94\xbfm\xb3\x9c\x1cD*\xcd?"
p17
tp18
bsS'average_top'
p19
g4
(g5
(I0
tp20
g7
tp21
Rp22
(I1
(I3
tp23
g14
I00
S'wB\x8fu7S\xa0\xbf\xd4Hn\x86K\xa4T\xbf\x0eE\x18\x1b\x9ey\xbb?'
p24
tp25
bsS'average_total'
p26
g4
(g5
(I0
tp27
g7
tp28
Rp29
(I1
(I3
tp30
g14
I00
S'e\x19\x10\xa8\x0eS\x9d\xbf\x88s\xfb\xdb\xab\xee\x8b\xbf\x187(f\xca\x05\xc8?'
p31
tp32
bsS'S_total'
p33
F4.825857288810301
s.