(dp0
S'S_top'
p1
F-5.493814596859894
sS'S_bottom'
p2
F10.929383035970373
sS'average_bottom'
p3
cnumpy.core.multiarray
_reconstruct
p4
(cnumpy
ndarray
p5
(I0
tp6
S'b'
p7
tp8
Rp9
(I1
(I3
tp10
cnumpy
dtype
p11
(S'f8'
p12
I0
I1
tp13
Rp14
(I3
S'<'
p15
NNNI-1
I-1
I0
tp16
bI00
S'\xb9,\x90xQ-\x9c\xbf\xbfK-\xb0\xe6\xa3\x92\xbfu7\x13\x0e\xbb\xab\xcc?'
p17
tp18
bsS'average_top'
p19
g4
(g5
(I0
tp20
g7
tp21
Rp22
(I1
(I3
tp23
g14
I00
S'\xd7\x19f#=\xf0\xa0\xbf\x12q\xa1\xf5YC,\xbf\xe43\x1dn\x93_\xbb?'
p24
tp25
bsS'average_total'
p26
g4
(g5
(I0
tp27
g7
tp28
Rp29
(I1
(I3
tp30
g14
I00
S'\n\x07Bn\xb3\x13\x9e\xbf\x08&x[>\x00\x89\xbf\xe6,\xe0\xd6\x17\xad\xc7?'
p31
tp32
bsS'S_total'
p33
F5.435568439110551
s.