(dp0
S'S_top'
p1
F-5.475232335105169
sS'S_bottom'
p2
F11.109195789308185
sS'average_bottom'
p3
cnumpy.core.multiarray
_reconstruct
p4
(cnumpy
ndarray
p5
(I0
tp6
S'b'
p7
tp8
Rp9
(I1
(I3
tp10
cnumpy
dtype
p11
(S'f8'
p12
I0
I1
tp13
Rp14
(I3
S'<'
p15
NNNI-1
I-1
I0
tp16
bI00
S'\x0b\xcbE\xf5\xfa?\x9c\xbf\x98"`\xa6\x17\x1a\x92\xbf\xc9\xfe\xee\x1c\x8ep\xcc?'
p17
tp18
bsS'average_top'
p19
g4
(g5
(I0
tp20
g7
tp21
Rp22
(I1
(I3
tp23
g14
I00
S'\x0e{m\xc5\xd3\x19\xa1\xbf[o\xdd\xa3j\xf7)?(C\xab\x05u3\xbb?'
p24
tp25
bsS'average_total'
p26
g4
(g5
(I0
tp27
g7
tp28
Rp29
(I1
(I3
tp30
g14
I00
S'\xe19`"\xde;\x9e\xbfo\xec8>1\x00\x88\xbf\xe7\xeeZ\x1eJ~\xc7?'
p31
tp32
bsS'S_total'
p33
F5.633963454202856
s.