(dp0
S'S_top'
p1
F-5.454446759186063
sS'S_bottom'
p2
F11.283809609551295
sS'average_bottom'
p3
cnumpy.core.multiarray
_reconstruct
p4
(cnumpy
ndarray
p5
(I0
tp6
S'b'
p7
tp8
Rp9
(I1
(I3
tp10
cnumpy
dtype
p11
(S'f8'
p12
I0
I1
tp13
Rp14
(I3
S'<'
p15
NNNI-1
I-1
I0
tp16
bI00
S'\xf5$B\r\xbaG\x9c\xbf*\xd2u\x0b\xbf\x94\x91\xbf\x9a6p\xda\xdd-\xcc?'
p17
tp18
bsS'average_top'
p19
g4
(g5
(I0
tp20
g7
tp21
Rp22
(I1
(I3
tp23
g14
I00
S'\xf9\xe1;\xe1\x00=\xa1\xbf\xb1\xe2\x8cZo\x1dE?w\x86\x8ax\xba\xf4\xba?'
p24
tp25
bsS'average_total'
p26
g4
(g5
(I0
tp27
g7
tp28
Rp29
(I1
(I3
tp30
g14
I00
S'7\xe3\x85\x8f{X\x9e\xbfF\xf5\xb3\xfbg\x00\x87\xbfd\xb2\xca)`G\xc7?'
p31
tp32
bsS'S_total'
p33
F5.829362850365145
s.