(dp0
S'S_top'
p1
F-5.431510606430214
sS'S_bottom'
p2
F11.453004819627104
sS'average_bottom'
p3
cnumpy.core.multiarray
_reconstruct
p4
(cnumpy
ndarray
p5
(I0
tp6
S'b'
p7
tp8
Rp9
(I1
(I3
tp10
cnumpy
dtype
p11
(S'f8'
p12
I0
I1
tp13
Rp14
(I3
S'<'
p15
NNNI-1
I-1
I0
tp16
bI00
S'\x96V\x83\x90\xc2E\x9c\xbf\x99G\xc2\xcd\x12\x15\x91\xbfhch\xf6H\xe4\xcb?'
p17
tp18
bsS'average_top'
p19
g4
(g5
(I0
tp20
g7
tp21
Rp22
(I1
(I3
tp23
g14
I00
S'\xc5>b\xaeHY\xa1\xbf\xe19\x85T|aR?XlB\xdc#\xa3\xba?'
p24
tp25
bsS'average_total'
p26
g4
(g5
(I0
tp27
g7
tp28
Rp29
(I1
(I3
tp30
g14
I00
S'\x1d\xc2\xc6e\x06j\x9e\xbfP?\x9c!\xba\x02\x86\xbf\xb8\xac\xc7\x1c\xb9\x08\xc7?'
p31
tp32
bsS'S_total'
p33
F6.021494213196814
s.