(dp0
S'S_top'
p1
F-5.188192861935221
sS'S_bottom'
p2
F12.60075859915262
sS'average_bottom'
p3
cnumpy.core.multiarray
_reconstruct
p4
(cnumpy
ndarray
p5
(I0
tp6
S'b'
p7
tp8
Rp9
(I1
(I3
tp10
cnumpy
dtype
p11
(S'f8'
p12
I0
I1
tp13
Rp14
(I3
S'<'
p15
NNNI-1
I-1
I0
tp16
bI00
S'\xdcw\x8a\x13\xcfu\x9b\xbf\xb6U\xc4\xfdAu\x8c\xbf\x8e;\xc3\x90\x8a\xe9\xc8?'
p17
tp18
bsS'average_top'
p19
g4
(g5
(I0
tp20
g7
tp21
Rp22
(I1
(I3
tp23
g14
I00
S'k3\x1c\xbd/2\xa1\xbf\xe95\xa1\x9e\xce_w?\xc2\xb6\x8d\x0f4\x94\xb5?'
p24
tp25
bsS'average_total'
p26
g4
(g5
(I0
tp27
g7
tp28
Rp29
(I1
(I3
tp30
g14
I00
S"P\nh[S\xc5\x9d\xbf.\xc4\x17\xdb '~\xbf\x04\x1a\x81xg4\xc4?"
p31
tp32
bsS'S_total'
p33
F7.412565737217329
s.