(dp0
S'S_top'
p1
F3.401949691545329
sS'S_bottom'
p2
F4.795909086732704
sS'average_bottom'
p3
cnumpy.core.multiarray
_reconstruct
p4
(cnumpy
ndarray
p5
(I0
tp6
S'b'
p7
tp8
Rp9
(I1
(I3
tp10
cnumpy
dtype
p11
(S'f8'
p12
I0
I1
tp13
Rp14
(I3
S'<'
p15
NNNI-1
I-1
I0
tp16
bI00
S"5\xdc'D\xd5s\x19?\xd8\xd2\xab\xc9P\xbc\n?\x19Iw\x9c\xc4\xbd\xeb?"
p17
tp18
bsS'average_top'
p19
g4
(g5
(I0
tp20
g7
tp21
Rp22
(I1
(I3
tp23
g14
I00
S'l|\xad\x87\x978(\xbfu97}\xda\x8c\x1b\xbf\ns\xff\x85\xff\xe6\xe8?'
p24
tp25
bsS'average_total'
p26
g4
(g5
(I0
tp27
g7
tp28
Rp29
(I1
(I3
tp30
g14
I00
S'\\\xfdJ\xb7\xb9F\xca>\xb3l\xa4\xcb\x0e_\xb1\xbe\xe9\xfb\xaff\x83\xcb\xea?'
p31
tp32
bsS'S_total'
p33
F8.19785877827807
s.