(dp0
S'S_top'
p1
F-5.119019386300626
sS'S_bottom'
p2
F12.831054518794613
sS'average_bottom'
p3
cnumpy.core.multiarray
_reconstruct
p4
(cnumpy
ndarray
p5
(I0
tp6
S'b'
p7
tp8
Rp9
(I1
(I3
tp10
cnumpy
dtype
p11
(S'f8'
p12
I0
I1
tp13
Rp14
(I3
S'<'
p15
NNNI-1
I-1
I0
tp16
bI00
S')%1\xfc\xf8<\x9b\xbfmMm\xd2\xb3\xb6\x8b\xbf}\x01\xc8\xe5\x10\x10\xc8?'
p17
tp18
bsS'average_top'
p19
g4
(g5
(I0
tp20
g7
tp21
Rp22
(I1
(I3
tp23
g14
I00
S'\x95\x92xz\x14\xe7\xa0\xbf\x83C\xaf\xbd\x12Q|?\xd0.\xa4"x\xbd\xb3?'
p24
tp25
bsS'average_total'
p26
g4
(g5
(I0
tp27
g7
tp28
Rp29
(I1
(I3
tp30
g14
I00
S'\x8b\x03e/]m\x9d\xbf/BD.M\x83{\xbfY\x8e\xc2\x0c\xf7T\xc3?'
p31
tp32
bsS'S_total'
p33
F7.712035132494046
s.