(dp0
S'S_top'
p1
F-4.873495266152342
sS'S_bottom'
p2
F13.544629125220458
sS'average_bottom'
p3
cnumpy.core.multiarray
_reconstruct
p4
(cnumpy
ndarray
p5
(I0
tp6
S'b'
p7
tp8
Rp9
(I1
(I3
tp10
cnumpy
dtype
p11
(S'f8'
p12
I0
I1
tp13
Rp14
(I3
S'<'
p15
NNNI-1
I-1
I0
tp16
bI00
S'\x97(\x10\xe5\x82S\x9b\xbf\xf4i\xe1@4_\x8a\xbf\xda\xc8[^U\xb9\xc4?'
p17
tp18
bsS'average_top'
p19
g4
(g5
(I0
tp20
g7
tp21
Rp22
(I1
(I3
tp23
g14
I00
S'\xf8#\xe6*\xed\x9c\x9e\xbf\xca\x16\x02="u\x86?{\xd9ac\xbe\xdd\xa6?'
p24
tp25
bsS'average_total'
p26
g4
(g5
(I0
tp27
g7
tp28
Rp29
(I1
(I3
tp30
g14
I00
S'\x07\xc4\x02\x17\xfbk\x9c\xbf\xd8+\xb89\xea0t\xbf\xcat\xb1\x06lq\xbf?'
p31
tp32
bsS'S_total'
p33
F8.671133859068078
s.