(dp0
S'S_top'
p1
F3.547966231592884
sS'S_bottom'
p2
F4.764196991705456
sS'average_bottom'
p3
cnumpy.core.multiarray
_reconstruct
p4
(cnumpy
ndarray
p5
(I0
tp6
S'b'
p7
tp8
Rp9
(I1
(I3
tp10
cnumpy
dtype
p11
(S'f8'
p12
I0
I1
tp13
Rp14
(I3
S'<'
p15
NNNI-1
I-1
I0
tp16
bI00
S'\xcert\x80jF\x1b?z\x17\xb2if\x92\x11?\xd5\x03\xe5u\xc1\xb1\xeb?'
p17
tp18
bsS'average_top'
p19
g4
(g5
(I0
tp20
g7
tp21
Rp22
(I1
(I3
tp23
g14
I00
S"\xdd\xadK\xf9\x93\x19(\xbf\x86L)Ztm \xbf\xab \xf0\xf8'L\xe8?"
p24
tp25
bsS'average_total'
p26
g4
(g5
(I0
tp27
g7
tp28
Rp29
(I1
(I3
tp30
g14
I00
S']\xe8\xff%\x8a\xef\xe0>\x0b\xbe\xe6s\x95j\xc8>8\x91e6\xe4\x8f\xea?'
p31
tp32
bsS'S_total'
p33
F8.312163223298416
s.