(dp0
S'S_top'
p1
F-4.736518425239734
sS'S_bottom'
p2
F13.963258528438901
sS'average_bottom'
p3
cnumpy.core.multiarray
_reconstruct
p4
(cnumpy
ndarray
p5
(I0
tp6
S'b'
p7
tp8
Rp9
(I1
(I3
tp10
cnumpy
dtype
p11
(S'f8'
p12
I0
I1
tp13
Rp14
(I3
S'<'
p15
NNNI-1
I-1
I0
tp16
bI00
S'\xb5\x89IZ\xc9\xb2\x9d\xbf\xa5\xff\x92F\xf5,\x88\xbf}\x93C\xb2\x99\t\xc2?'
p17
tp18
bsS'average_top'
p19
g4
(g5
(I0
tp20
g7
tp21
Rp22
(I1
(I3
tp23
g14
I00
S'\xc8\x08$\xfe\x82G\x9c\xbf\xfcU\x0b\x94Ik\x8a?\xfbC^\x90\xb2\xc4\x8f?'
p24
tp25
bsS'average_total'
p26
g4
(g5
(I0
tp27
g7
tp28
Rp29
(I1
(I3
tp30
g14
I00
S'\x13\x89h$\xb29\x9d\xbf\x18\xaaB\x99N>m\xbf\xa0}62\xaf_\xb9?'
p31
tp32
bsS'S_total'
p33
F9.22674010319907
s.