(dp0
S'S_top'
p1
F-4.714099524788564
sS'S_bottom'
p2
F14.03167647951665
sS'average_bottom'
p3
cnumpy.core.multiarray
_reconstruct
p4
(cnumpy
ndarray
p5
(I0
tp6
S'b'
p7
tp8
Rp9
(I1
(I3
tp10
cnumpy
dtype
p11
(S'f8'
p12
I0
I1
tp13
Rp14
(I3
S'<'
p15
NNNI-1
I-1
I0
tp16
bI00
S'z\xe5\xf5\x89\xad\x9b\x9e\xbf\xa2\x83\xd0;\xad\xe9\x86\xbf-\xc6?\xa3\xbc\x86\xc1?'
p17
tp18
bsS'average_top'
p19
g4
(g5
(I0
tp20
g7
tp21
Rp22
(I1
(I3
tp23
g14
I00
S'[\xa90\xc3\xdc\x0f\x9c\xbf+\x7ffW\xd8\xbd\x8a?\x16u\xa2S3;\x84?'
p24
tp25
bsS'average_total'
p26
g4
(g5
(I0
tp27
g7
tp28
Rp29
(I1
(I3
tp30
g14
I00
S'\x94\x9f\xebah\xc2\x9d\xbfVCN\xd3$ri\xbfv7\xb88#6\xb8?'
p31
tp32
bsS'S_total'
p33
F9.317576954728084
s.