(dp0
S'S_top'
p1
F-4.590831928281232
sS'S_bottom'
p2
F14.233281790752129
sS'average_bottom'
p3
cnumpy.core.multiarray
_reconstruct
p4
(cnumpy
ndarray
p5
(I0
tp6
S'b'
p7
tp8
Rp9
(I1
(I3
tp10
cnumpy
dtype
p11
(S'f8'
p12
I0
I1
tp13
Rp14
(I3
S'<'
p15
NNNI-1
I-1
I0
tp16
bI00
S'\xbc\x08\x05\xdd\xbe\x0c\xa1\xbf\r\x9c\x11\xa8x\xee|\xbf.X\xad\x8a4M\xc0?'
p17
tp18
bsS'average_top'
p19
g4
(g5
(I0
tp20
g7
tp21
Rp22
(I1
(I3
tp23
g14
I00
S'\x19\xc1\xf0\xefnq\x9c\xbfG\xa2[\xe1=\xcb\x8a?\xb6\xb7E!~\xf4i\xbf'
p24
tp25
bsS'average_total'
p26
g4
(g5
(I0
tp27
g7
tp28
Rp29
(I1
(I3
tp30
g14
I00
S'\xec\t\x94\x8cg\x1b\xa0\xbfAH<\x91\xff\xcd6\xbf\xb0ny \x15w\xb5?'
p31
tp32
bsS'S_total'
p33
F9.642449862470816
s.