(dp0
S'S_top'
p1
F-4.5590917653270635
sS'S_bottom'
p2
F14.265803269444868
sS'average_bottom'
p3
cnumpy.core.multiarray
_reconstruct
p4
(cnumpy
ndarray
p5
(I0
tp6
S'b'
p7
tp8
Rp9
(I1
(I3
tp10
cnumpy
dtype
p11
(S'f8'
p12
I0
I1
tp13
Rp14
(I3
S'<'
p15
NNNI-1
I-1
I0
tp16
bI00
S'\xb1pH\xa9\x93F\xa1\xbf\xf2\xe3P\x94\x9b@y\xbf\xa5\xc4;\x00\x0c2\xc0?'
p17
tp18
bsS'average_top'
p19
g4
(g5
(I0
tp20
g7
tp21
Rp22
(I1
(I3
tp23
g14
I00
S'T\x93Z\xb5}\x9a\x9c\xbf\x84\xe5Y\xc5\xa0\xc4\x8a?\xe7b\xcfeN%q\xbf'
p24
tp25
bsS'average_total'
p26
g4
(g5
(I0
tp27
g7
tp28
Rp29
(I1
(I3
tp30
g14
I00
S'T5\n<\xcdH\xa0\xbfkh\xf3M\n*0?\xea\xe09\x18\xa4<\xb5?'
p31
tp32
bsS'S_total'
p33
F9.70671150411767
s.