(dp0
S'S_top'
p1
F3.820817259435309
sS'S_bottom'
p2
F4.681911218985691
sS'average_bottom'
p3
cnumpy.core.multiarray
_reconstruct
p4
(cnumpy
ndarray
p5
(I0
tp6
S'b'
p7
tp8
Rp9
(I1
(I3
tp10
cnumpy
dtype
p11
(S'f8'
p12
I0
I1
tp13
Rp14
(I3
S'<'
p15
NNNI-1
I-1
I0
tp16
bI00
S'gH\xa2lD\x97\x1d?\xb1\xb2\x19)\xa7Q\x1a?\xfc@\x1f\x19\xb2\x9e\xeb?'
p17
tp18
bsS'average_top'
p19
g4
(g5
(I0
tp20
g7
tp21
Rp22
(I1
(I3
tp23
g14
I00
S'\xc1\xeb~?\x81m&\xbf\x97\xe0Er\xc7\r%\xbf\xda\xda\x08\xcc\x9d\x14\xe7?'
p24
tp25
bsS'average_total'
p26
g4
(g5
(I0
tp27
g7
tp28
Rp29
(I1
(I3
tp30
g14
I00
S'7s\xb4n;\x1a\xf3>|\xbd6\xd3\x06\x15\xec>\xd6.M\xc6V\x1b\xea?'
p31
tp32
bsS'S_total'
p33
F8.502728478420988
s.