(dp0
S'S_top'
p1
F-4.386730476544794
sS'S_bottom'
p2
F14.418877986041714
sS'average_bottom'
p3
cnumpy.core.multiarray
_reconstruct
p4
(cnumpy
ndarray
p5
(I0
tp6
S'b'
p7
tp8
Rp9
(I1
(I3
tp10
cnumpy
dtype
p11
(S'f8'
p12
I0
I1
tp13
Rp14
(I3
S'<'
p15
NNNI-1
I-1
I0
tp16
bI00
S'=3\xf2\xf97\xee\xa1\xbf\xc0h\xc5dz\x15\\\xbfbFd>r\xd3\xbf?'
p17
tp18
bsS'average_top'
p19
g4
(g5
(I0
tp20
g7
tp21
Rp22
(I1
(I3
tp23
g14
I00
S"b\xe4\x1bX\xd5Q\x9d\xbfa;J\xa5\xd6\xe6\x8a?\xd9'\xb5\x06t\x12z\xbf"
p24
tp25
bsS'average_total'
p26
g4
(g5
(I0
tp27
g7
tp28
Rp29
(I1
(I3
tp30
g14
I00
S'R\xf7\x9b\xc4\x1e\xd7\xa0\xbf\xab\xc8\xe2\x93\xe0\x81j?\xe7\x97-#\x9a\xac\xb4?'
p31
tp32
bsS'S_total'
p33
F10.03214750949675
s.