(dp0
S'S_top'
p1
F-4.285563446583964
sS'S_bottom'
p2
F14.501533697096901
sS'average_bottom'
p3
cnumpy.core.multiarray
_reconstruct
p4
(cnumpy
ndarray
p5
(I0
tp6
S'b'
p7
tp8
Rp9
(I1
(I3
tp10
cnumpy
dtype
p11
(S'f8'
p12
I0
I1
tp13
Rp14
(I3
S'<'
p15
NNNI-1
I-1
I0
tp16
bI00
S'0B\x84eo\x03\xa2\xbf\xc5\xfc.W\xe7<P?b\xb9\x00L(\xac\xbf?'
p17
tp18
bsS'average_top'
p19
g4
(g5
(I0
tp20
g7
tp21
Rp22
(I1
(I3
tp23
g14
I00
S'Y\xc5\x92\x03\x97\xa2\x9d\xbf\x8b\xde\xd4w08\x8b?\x1fV\xf1\x85\xa7}z\xbf'
p24
tp25
bsS'average_total'
p26
g4
(g5
(I0
tp27
g7
tp28
Rp29
(I1
(I3
tp30
g14
I00
S'\x0f\xa7IP\xb9\xf2\xa0\xbf4\xa5;?>\xdat?\x0e8\x06\x14-\x90\xb4?'
p31
tp32
bsS'S_total'
p33
F10.215970250512953
s.