(dp0
S'S_top'
p1
F-4.09613466121609
sS'S_bottom'
p2
F14.655251326458169
sS'average_bottom'
p3
cnumpy.core.multiarray
_reconstruct
p4
(cnumpy
ndarray
p5
(I0
tp6
S'b'
p7
tp8
Rp9
(I1
(I3
tp10
cnumpy
dtype
p11
(S'f8'
p12
I0
I1
tp13
Rp14
(I3
S'<'
p15
NNNI-1
I-1
I0
tp16
bI00
S'\x05\x87L\xec\xfd]\xa1\xbf\x18\x8anY\t\xc3|?\xc0\xa2M}yt\xbf?'
p17
tp18
bsS'average_top'
p19
g4
(g5
(I0
tp20
g7
tp21
Rp22
(I1
(I3
tp23
g14
I00
S'\x1f\x9e!4\x1a\xe8\x9d\xbf\xba\t\xea_\xdd\xa2\x8c?\x97X\xb5!Hvu\xbf'
p24
tp25
bsS'average_total'
p26
g4
(g5
(I0
tp27
g7
tp28
Rp29
(I1
(I3
tp30
g14
I00
S'\x10\xaaNe\x03\x90\xa0\xbf~]\x93"\xf5!\x83?\xfdv\x03\xc5\xdf\x85\xb4?'
p31
tp32
bsS'S_total'
p33
F10.55911666524197
s.