(dp0
S'S_top'
p1
F-4.053017267910772
sS'S_bottom'
p2
F14.69014522559052
sS'average_bottom'
p3
cnumpy.core.multiarray
_reconstruct
p4
(cnumpy
ndarray
p5
(I0
tp6
S'b'
p7
tp8
Rp9
(I1
(I3
tp10
cnumpy
dtype
p11
(S'f8'
p12
I0
I1
tp13
Rp14
(I3
S'<'
p15
NNNI-1
I-1
I0
tp16
bI00
S'\xbf)=m\xc3\xfd\xa0\xbf\xe33\xd7RL\x8a\x81?\x13\x11)J\x89c\xbf?'
p17
tp18
bsS'average_top'
p19
g4
(g5
(I0
tp20
g7
tp21
Rp22
(I1
(I3
tp23
g14
I00
S'vh6~u\xdb\x9d\xbf\xd5\xdb\x0eUt/\x8d?\xc9\xe1\x84\xd5\xb0Ys\xbf'
p24
tp25
bsS'average_total'
p26
g4
(g5
(I0
tp27
g7
tp28
Rp29
(I1
(I3
tp30
g14
I00
S'\xaf\xf6\xe4\xe2\xc0M\xa0\xbfcudU\x02l\x85?O\xc3}\x16\xd8\x85\xb4?'
p31
tp32
bsS'S_total'
p33
F10.637127957679684
s.