(dp0
S'S_top'
p1
F-4.010889981729866
sS'S_bottom'
p2
F14.72317758345121
sS'average_bottom'
p3
cnumpy.core.multiarray
_reconstruct
p4
(cnumpy
ndarray
p5
(I0
tp6
S'b'
p7
tp8
Rp9
(I1
(I3
tp10
cnumpy
dtype
p11
(S'f8'
p12
I0
I1
tp13
Rp14
(I3
S'<'
p15
NNNI-1
I-1
I0
tp16
bI00
S'\xb8|`\x17\xc0\x84\xa0\xbfH>\xfb\x9e\x81\xa2\x84?\xf223H\x95N\xbf?'
p17
tp18
bsS'average_top'
p19
g4
(g5
(I0
tp20
g7
tp21
Rp22
(I1
(I3
tp23
g14
I00
S'\x82\xea3!\xc1\xbe\x9d\xbf\xf8\xcb&{%\xd2\x8d?\t>\xd1V9\x06q\xbf'
p24
tp25
bsS'average_total'
p26
g4
(g5
(I0
tp27
g7
tp28
Rp29
(I1
(I3
tp30
g14
I00
S'-\xff e\x96\xf0\x9f\xbf\xa1\xf9\xeaUa\xb2\x87?+p\xde\xddG\x84\xb4?'
p31
tp32
bsS'S_total'
p33
F10.712287601721464
s.