(dp0
S'S_top'
p1
F-3.758871938828756
sS'S_bottom'
p2
F14.847491321883654
sS'average_bottom'
p3
cnumpy.core.multiarray
_reconstruct
p4
(cnumpy
ndarray
p5
(I0
tp6
S'b'
p7
tp8
Rp9
(I1
(I3
tp10
cnumpy
dtype
p11
(S'f8'
p12
I0
I1
tp13
Rp14
(I3
S'<'
p15
NNNI-1
I-1
I0
tp16
bI00
S'{\x7f!\xe6\x7f{\x97\xbf\x1bc\xcc\x12H.\x91?\xb4\xbc\x12\x9962\xbe?'
p17
tp18
bsS'average_top'
p19
g4
(g5
(I0
tp20
g7
tp21
Rp22
(I1
(I3
tp23
g14
I00
S'\x05OCX\x8a/\x9b\xbfA\x04\xd9\x19\xc9\xc7\x91?\n\x9a[8X\xde;\xbf'
p24
tp25
bsS'average_total'
p26
g4
(g5
(I0
tp27
g7
tp28
Rp29
(I1
(I3
tp30
g14
I00
S'4QC\xbf\x82\xb7\x98\xbf;\xbd\xe0\xfara\x91?xe\xac\xcd4\x18\xb4?'
p31
tp32
bsS'S_total'
p33
F11.088619383055057
s.