(dp0
S'S_top'
p1
F4.065915516550591
sS'S_bottom'
p2
F4.585112287132225
sS'average_bottom'
p3
cnumpy.core.multiarray
_reconstruct
p4
(cnumpy
ndarray
p5
(I0
tp6
S'b'
p7
tp8
Rp9
(I1
(I3
tp10
cnumpy
dtype
p11
(S'f8'
p12
I0
I1
tp13
Rp14
(I3
S'<'
p15
NNNI-1
I-1
I0
tp16
bI00
S'Wp!v\x1ap\x1e?\xfb\x8asL,\x07!?\xa5a\x00,:\x8e\xeb?'
p17
tp18
bsS'average_top'
p19
g4
(g5
(I0
tp20
g7
tp21
Rp22
(I1
(I3
tp23
g14
I00
S'\t\x00\x80OO9#\xbf1\xc1D\xedM4(\xbf\xb6L}\x19\xab\xe1\xe5?'
p24
tp25
bsS'average_total'
p26
g4
(g5
(I0
tp27
g7
tp28
Rp29
(I1
(I3
tp30
g14
I00
S'dZ\x869\xa2\xe7\xfd>\xc3\xf1/=\xaaE\xfa>\xa1U\xc0s\x0b\xaa\xe9?'
p31
tp32
bsS'S_total'
p33
F8.651027803682798
s.