(dp0
S'S_top'
p1
F-3.651345724216016
sS'S_bottom'
p2
F14.808232440244913
sS'average_bottom'
p3
cnumpy.core.multiarray
_reconstruct
p4
(cnumpy
ndarray
p5
(I0
tp6
S'b'
p7
tp8
Rp9
(I1
(I3
tp10
cnumpy
dtype
p11
(S'f8'
p12
I0
I1
tp13
Rp14
(I3
S'<'
p15
NNNI-1
I-1
I0
tp16
bI00
S'\xd1o/\xfc\x0c\x0f\x82\xbf\x0e\xc4.\xaa\xda\x10\x8c?Q\xc4\xf0I\xe7\xca\xb9?'
p17
tp18
bsS'average_top'
p19
g4
(g5
(I0
tp20
g7
tp21
Rp22
(I1
(I3
tp23
g14
I00
S'\xa1\xa4zZ\xb5\x8e\x8e\xbf/\x08gq^\x97\x97?\xb9\xfa\x9c\xc0\x9e\xab`?'
p24
tp25
bsS'average_total'
p26
g4
(g5
(I0
tp27
g7
tp28
Rp29
(I1
(I3
tp30
g14
I00
S'\xbag^M\x989\x86\xbf6\x88nf\x118\x91?\xa9Q\xd0+h^\xb1?'
p31
tp32
bsS'S_total'
p33
F11.156886716029021
s.