(dp0
S'S_top'
p1
F-3.686797257044602
sS'S_bottom'
p2
F14.79400483543294
sS'average_bottom'
p3
cnumpy.core.multiarray
_reconstruct
p4
(cnumpy
ndarray
p5
(I0
tp6
S'b'
p7
tp8
Rp9
(I1
(I3
tp10
cnumpy
dtype
p11
(S'f8'
p12
I0
I1
tp13
Rp14
(I3
S'<'
p15
NNNI-1
I-1
I0
tp16
bI00
S'^\xae>\xd3\x82\x1b\x80\xbf\x91\xa3\x1e\xc3\xee\x10\x8a?_\x84wz!\xfd\xb8?'
p17
tp18
bsS'average_top'
p19
g4
(g5
(I0
tp20
g7
tp21
Rp22
(I1
(I3
tp23
g14
I00
S'.Q\xa2_i\xed\x89\xbfm=a\xb8<E\x98?\xe0\x94\x13f\xb7\x96\\?'
p24
tp25
bsS'average_total'
p26
g4
(g5
(I0
tp27
g7
tp28
Rp29
(I1
(I3
tp30
g14
I00
S'\xd0\xf3&\xa9xa\x83\xbf\xeb\x93\x82\xe7a\xc7\x90?\xac\xe9dy\xe3\xce\xb0?'
p31
tp32
bsS'S_total'
p33
F11.10720757838838
s.