(dp0
S'S_top'
p1
F-3.732904106884825
sS'S_bottom'
p2
F14.776908178633272
sS'average_bottom'
p3
cnumpy.core.multiarray
_reconstruct
p4
(cnumpy
ndarray
p5
(I0
tp6
S'b'
p7
tp8
Rp9
(I1
(I3
tp10
cnumpy
dtype
p11
(S'f8'
p12
I0
I1
tp13
Rp14
(I3
S'<'
p15
NNNI-1
I-1
I0
tp16
bI00
S'o\xe3\x92\n\n,}\xbf\x99)\x04\xa5\x946\x88?\xae\xde\xc5\xcb\x00(\xb8?'
p17
tp18
bsS'average_top'
p19
g4
(g5
(I0
tp20
g7
tp21
Rp22
(I1
(I3
tp23
g14
I00
S'e\xdd\xfcDJ\x11\x85\xbf\ty\x9f5}\xe2\x98?w7\xee\xfao\x08T?'
p24
tp25
bsS'average_total'
p26
g4
(g5
(I0
tp27
g7
tp28
Rp29
(I1
(I3
tp30
g14
I00
S'\x7f\xa8\x8e\xfe\x1a\xbf\x80\xbf\x97zcn\xae]\x90?\xd0\x99\xc11e5\xb0?'
p31
tp32
bsS'S_total'
p33
F11.044004071748397
s.