(dp0
S'S_top'
p1
F-3.7838615953037853
sS'S_bottom'
p2
F14.754384419499239
sS'average_bottom'
p3
cnumpy.core.multiarray
_reconstruct
p4
(cnumpy
ndarray
p5
(I0
tp6
S'b'
p7
tp8
Rp9
(I1
(I3
tp10
cnumpy
dtype
p11
(S'f8'
p12
I0
I1
tp13
Rp14
(I3
S'<'
p15
NNNI-1
I-1
I0
tp16
bI00
S'ao*J\x08\xd2z\xbf\xd0co\x8f\x9c\xa2\x86?y\xae\xf5\x8eEO\xb7?'
p17
tp18
bsS'average_top'
p19
g4
(g5
(I0
tp20
g7
tp21
Rp22
(I1
(I3
tp23
g14
I00
S'#d@\xc6\x13\x1a\x80\xbf\xfc/\xe2lJm\x99?\x8aw\xa9\x95\xa7\xbf<?'
p24
tp25
bsS'average_total'
p26
g4
(g5
(I0
tp27
g7
tp28
Rp29
(I1
(I3
tp30
g14
I00
S"\xf8\xbb\x18\x1fg\x9d|\xbf\xf3\x8c\xa0\x94J\x05\x90?\xd8`\xf1\x1e\x8f'\xaf?"
p31
tp32
bsS'S_total'
p33
F10.970522824195093
s.