(dp0
S'S_top'
p1
F-3.83422439357076
sS'S_bottom'
p2
F14.680640407970637
sS'average_bottom'
p3
cnumpy.core.multiarray
_reconstruct
p4
(cnumpy
ndarray
p5
(I0
tp6
S'b'
p7
tp8
Rp9
(I1
(I3
tp10
cnumpy
dtype
p11
(S'f8'
p12
I0
I1
tp13
Rp14
(I3
S'<'
p15
NNNI-1
I-1
I0
tp16
bI00
S"\x03'\x06_\x7fXw\xbf>\xf2\xb9|\x12\xab\x84?\x85\x92K\xba\xb4\xa2\xb5?"
p17
tp18
bsS'average_top'
p19
g4
(g5
(I0
tp20
g7
tp21
Rp22
(I1
(I3
tp23
g14
I00
S'e(\xd0\xbd\x85\xb0i\xbf\x1dp\xc5:+S\x9a?\xe8ae\xcaf\x7f`\xbf'
p24
tp25
bsS'average_total'
p26
g4
(g5
(I0
tp27
g7
tp28
Rp29
(I1
(I3
tp30
g14
I00
S'\xecA`\x00m\xd8s\xbf5\xdb\xd9\xab#T\x8f?3\x9cq\xbe\xfb\x80\xac?'
p31
tp32
bsS'S_total'
p33
F10.846416014399898
s.