(dp0
S'S_top'
p1
F-3.843864002327023
sS'S_bottom'
p2
F14.641206193286372
sS'average_bottom'
p3
cnumpy.core.multiarray
_reconstruct
p4
(cnumpy
ndarray
p5
(I0
tp6
S'b'
p7
tp8
Rp9
(I1
(I3
tp10
cnumpy
dtype
p11
(S'f8'
p12
I0
I1
tp13
Rp14
(I3
S'<'
p15
NNNI-1
I-1
I0
tp16
bI00
S'A\xdb\x97dA\xe3u\xbf\\D\x80\xac\x02[\x84?\xf9L\xfb\xf5\xa3\xd7\xb4?'
p17
tp18
bsS'average_top'
p19
g4
(g5
(I0
tp20
g7
tp21
Rp22
(I1
(I3
tp23
g14
I00
S'\x9c\xb3\xe6\xe2 \xe6N\xbf\t\xed>\x0f\xa0\xb0\x9a?Y\xacd\xeax\xb7n\xbf'
p24
tp25
bsS'average_total'
p26
g4
(g5
(I0
tp27
g7
tp28
Rp29
(I1
(I3
tp30
g14
I00
S'8s\x1fo5\xc2o\xbfM\x98\xfe\x80\x11]\x8f?\x91l\x1f\xe4d&\xab?'
p31
tp32
bsS'S_total'
p33
F10.797342190959329
s.