(dp0
S'S_top'
p1
F4.177791649324188
sS'S_bottom'
p2
F4.535065732411832
sS'average_bottom'
p3
cnumpy.core.multiarray
_reconstruct
p4
(cnumpy
ndarray
p5
(I0
tp6
S'b'
p7
tp8
Rp9
(I1
(I3
tp10
cnumpy
dtype
p11
(S'f8'
p12
I0
I1
tp13
Rp14
(I3
S'<'
p15
NNNI-1
I-1
I0
tp16
bI00
S'\xbf[\x95\xbd\xc3\xa4\x1e?\xb0P70\xc9\x9b"?\x1d0\xa0h\x8e\x85\xeb?'
p17
tp18
bsS'average_top'
p19
g4
(g5
(I0
tp20
g7
tp21
Rp22
(I1
(I3
tp23
g14
I00
S'Vy(\xa8\xb2S!\xbf\x1bd\xb4J\xe2%)\xbf\x83[\xaa_\x1cL\xe5?'
p24
tp25
bsS'average_total'
p26
g4
(g5
(I0
tp27
g7
tp28
Rp29
(I1
(I3
tp30
g14
I00
S'E\x80\x16v\x82\xc1\x01?\x19\xfdff\xb3\x17\x00?\x10LVvir\xe9?'
p31
tp32
bsS'S_total'
p33
F8.712857381736011
s.