(dp0
S'S_top'
p1
F-3.918911105256855
sS'S_bottom'
p2
F14.574314911270362
sS'average_bottom'
p3
cnumpy.core.multiarray
_reconstruct
p4
(cnumpy
ndarray
p5
(I0
tp6
S'b'
p7
tp8
Rp9
(I1
(I3
tp10
cnumpy
dtype
p11
(S'f8'
p12
I0
I1
tp13
Rp14
(I3
S'<'
p15
NNNI-1
I-1
I0
tp16
bI00
S'\x04|S\xcc\xbc s\xbf\xbd`\xce8l\x0c\x85?K\x9a\xbd/\xf8k\xb3?'
p17
tp18
bsS'average_top'
p19
g4
(g5
(I0
tp20
g7
tp21
Rp22
(I1
(I3
tp23
g14
I00
S'\xdf\x81\x1aq\xc5\x98g?H\xa1\xbe\x14~A\x9b?\xf6c\x87wt!\x81\xbf'
p24
tp25
bsS'average_total'
p26
g4
(g5
(I0
tp27
g7
tp28
Rp29
(I1
(I3
tp30
g14
I00
S'\x80n;+o\xa3a\xbfX\xc0|\xe7\xf5\x19\x90?i\x80o\xec\xddw\xa8?'
p31
tp32
bsS'S_total'
p33
F10.655403806013535
s.