(dp0
S'S_top'
p1
F-4.0087082866601715
sS'S_bottom'
p2
F14.508150711234544
sS'average_bottom'
p3
cnumpy.core.multiarray
_reconstruct
p4
(cnumpy
ndarray
p5
(I0
tp6
S'b'
p7
tp8
Rp9
(I1
(I3
tp10
cnumpy
dtype
p11
(S'f8'
p12
I0
I1
tp13
Rp14
(I3
S'<'
p15
NNNI-1
I-1
I0
tp16
bI00
S'-v\xfa-dWp\xbf\n{\xe1\x057B\x87?t*$\xc1"F\xb2?'
p17
tp18
bsS'average_top'
p19
g4
(g5
(I0
tp20
g7
tp21
Rp22
(I1
(I3
tp23
g14
I00
S'g\x15uB\xfa\xdew?x\xc7iO*\xba\x9b?\xe7i\n\xc0\ty\x8d\xbf'
p24
tp25
bsS'average_total'
p26
g4
(g5
(I0
tp27
g7
tp28
Rp29
(I1
(I3
tp30
g14
I00
S'\x89\x88\xad\xfc\xb1\x7fG\xbf\xf7\x07*[\xc8\xfe\x90?\xda\xdc3`\xca\xe8\xa5?'
p31
tp32
bsS'S_total'
p33
F10.499442424574507
s.