(dp0
S'S_top'
p1
F-4.057709351269795
sS'S_bottom'
p2
F14.476228938051822
sS'average_bottom'
p3
cnumpy.core.multiarray
_reconstruct
p4
(cnumpy
ndarray
p5
(I0
tp6
S'b'
p7
tp8
Rp9
(I1
(I3
tp10
cnumpy
dtype
p11
(S'f8'
p12
I0
I1
tp13
Rp14
(I3
S'<'
p15
NNNI-1
I-1
I0
tp16
bI00
S'\xf7B\xf6\xd2v\xbem\xbff3:k\x9b\xce\x88?_"\xc1\xf6N\xcf\xb1?'
p17
tp18
bsS'average_top'
p19
g4
(g5
(I0
tp20
g7
tp21
Rp22
(I1
(I3
tp23
g14
I00
S'\xf5\x9d\x00\xab\x0ex|?R_+4Z\xf3\x9b?a\x94\x8e3\xa6F\x92\xbf'
p24
tp25
bsS'average_total'
p26
g4
(g5
(I0
tp27
g7
tp28
Rp29
(I1
(I3
tp30
g14
I00
S'\xd2?9^35\x1b\xbfS\x92T\xe1\xf9\x95\x91?\x81\xfa\xa0>U\xb3\xa4?'
p31
tp32
bsS'S_total'
p33
F10.418519586781947
s.