(dp0
S'S_top'
p1
F-4.106446143648521
sS'S_bottom'
p2
F14.446024932024917
sS'average_bottom'
p3
cnumpy.core.multiarray
_reconstruct
p4
(cnumpy
ndarray
p5
(I0
tp6
S'b'
p7
tp8
Rp9
(I1
(I3
tp10
cnumpy
dtype
p11
(S'f8'
p12
I0
I1
tp13
Rp14
(I3
S'<'
p15
NNNI-1
I-1
I0
tp16
bI00
S'\x96\x1d^\x9e\xb3\xacj\xbfA\xb9\x0c%I\x94\x8a?N\xef\xf0\xa8\xc1j\xb1?'
p17
tp18
bsS'average_top'
p19
g4
(g5
(I0
tp20
g7
tp21
Rp22
(I1
(I3
tp23
g14
I00
S'v\xcc\xa0\xfaW\x0b\x80?mI\xdd\xa2\xdd-\x9c?\xdeA\x9d}\x12\x0c\x96\xbf'
p24
tp25
bsS'average_total'
p26
g4
(g5
(I0
tp27
g7
tp28
Rp29
(I1
(I3
tp30
g14
I00
S'\xc3\x1du\x17p\xdf<?G\x9b\xa4\x0b\xb5@\x92?1\xd3\x0fP\\\x8c\xa3?'
p31
tp32
bsS'S_total'
p33
F10.339578788376494
s.