(dp0
S'S_top'
p1
F-4.197130522559404
sS'S_bottom'
p2
F14.391023003057489
sS'average_bottom'
p3
cnumpy.core.multiarray
_reconstruct
p4
(cnumpy
ndarray
p5
(I0
tp6
S'b'
p7
tp8
Rp9
(I1
(I3
tp10
cnumpy
dtype
p11
(S'f8'
p12
I0
I1
tp13
Rp14
(I3
S'<'
p15
NNNI-1
I-1
I0
tp16
bI00
S'\xa3\x9c\xedT\xac:d\xbf\xdbwG\xcb\xb7\x9a\x8e?\x9ag\x95\xee\xb8\xd3\xb0?'
p17
tp18
bsS'average_top'
p19
g4
(g5
(I0
tp20
g7
tp21
Rp22
(I1
(I3
tp23
g14
I00
S'!\x8f\xc0\xcd\xadI\x82?\x86\xc7(y\xca\xb1\x9c?\xa7\x13+\x94\x00\x03\x9e\xbf'
p24
tp25
bsS'average_total'
p26
g4
(g5
(I0
tp27
g7
tp28
Rp29
(I1
(I3
tp30
g14
I00
S'\xee\x97\xe3gt\xcbU?x\xc7i!)\xc4\x93?\xb2%Dy)o\xa1?'
p31
tp32
bsS'S_total'
p33
F10.193892480498006
s.