(dp0
S'S_top'
p1
F-4.279723012683856
sS'S_bottom'
p2
F14.341733329522619
sS'average_bottom'
p3
cnumpy.core.multiarray
_reconstruct
p4
(cnumpy
ndarray
p5
(I0
tp6
S'b'
p7
tp8
Rp9
(I1
(I3
tp10
cnumpy
dtype
p11
(S'f8'
p12
I0
I1
tp13
Rp14
(I3
S'<'
p15
NNNI-1
I-1
I0
tp16
bI00
S'l\xec[,\x91I[\xbf)\x80;\xd6\x17\x83\x91?\xc0A\xf27mt\xb0?'
p17
tp18
bsS'average_top'
p19
g4
(g5
(I0
tp20
g7
tp21
Rp22
(I1
(I3
tp23
g14
I00
S'q\xdb\x0f\x02\x06\xfb\x82?iDt\x12\xa6N\x9d?<:3\xae\x96\x07\xa3\xbf'
p24
tp25
bsS'average_total'
p26
g4
(g5
(I0
tp27
g7
tp28
Rp29
(I1
(I3
tp30
g14
I00
S'\x16i\xf9\x9f\x1d6`?\x81\xce6\x90\x9aq\x95?\xf5bm={1\x9f?'
p31
tp32
bsS'S_total'
p33
F10.062010316838734
s.