(dp0
S'S_top'
p1
F4.282639527841081
sS'S_bottom'
p2
F4.48579668824627
sS'average_bottom'
p3
cnumpy.core.multiarray
_reconstruct
p4
(cnumpy
ndarray
p5
(I0
tp6
S'b'
p7
tp8
Rp9
(I1
(I3
tp10
cnumpy
dtype
p11
(S'f8'
p12
I0
I1
tp13
Rp14
(I3
S'<'
p15
NNNI-1
I-1
I0
tp16
bI00
S'\xe2l_e\xa3\xee\x1e?s?\x13-\x94\xf0#?\x07IR}\xe7{\xeb?'
p17
tp18
bsS'average_top'
p19
g4
(g5
(I0
tp20
g7
tp21
Rp22
(I1
(I3
tp23
g14
I00
S':\xb9\x8c(\x18\xd0\x1e\xbf\x814\x85P[\xb5)\xbf\xc5A\x9a\xfa\x10\xba\xe4?'
p24
tp25
bsS'average_total'
p26
g4
(g5
(I0
tp27
g7
tp28
Rp29
(I1
(I3
tp30
g14
I00
S'\xcf\x8c`\x8e\x89\xb3\x04?7\xb3\xc6\xa10\xe5\x02?z-\x1f\xcfK;\xe9?'
p31
tp32
bsS'S_total'
p33
F8.768436216087352
s.