(dp0
S'S_top'
p1
F-4.319155546738753
sS'S_bottom'
p2
F14.318210346117962
sS'average_bottom'
p3
cnumpy.core.multiarray
_reconstruct
p4
(cnumpy
ndarray
p5
(I0
tp6
S'b'
p7
tp8
Rp9
(I1
(I3
tp10
cnumpy
dtype
p11
(S'f8'
p12
I0
I1
tp13
Rp14
(I3
S'<'
p15
NNNI-1
I-1
I0
tp16
bI00
S'\xd9 R\x00\x9b\xd3T\xbf\xda-\xe9\xdc\xae\xa7\x92?0\xe8\x7f\xbd\xfbT\xb0?'
p17
tp18
bsS'average_top'
p19
g4
(g5
(I0
tp20
g7
tp21
Rp22
(I1
(I3
tp23
g14
I00
S's\xe5l\x999\xe0\x82?c\xac\xeb\xb2`\xa4\x9d?\x92\xc7\x9bgg\xf8\xa4\xbf'
p24
tp25
bsS'average_total'
p26
g4
(g5
(I0
tp27
g7
tp28
Rp29
(I1
(I3
tp30
g14
I00
S'\x0b\x05X\x18\xb59b?n79\x98=Q\x96?7\x9c|\xbal\x92\x9d?'
p31
tp32
bsS'S_total'
p33
F9.999054799379257
s.