(dp0
S'S_top'
p1
F-4.357779728099306
sS'S_bottom'
p2
F14.294981487723375
sS'average_bottom'
p3
cnumpy.core.multiarray
_reconstruct
p4
(cnumpy
ndarray
p5
(I0
tp6
S'b'
p7
tp8
Rp9
(I1
(I3
tp10
cnumpy
dtype
p11
(S'f8'
p12
I0
I1
tp13
Rp14
(I3
S'<'
p15
NNNI-1
I-1
I0
tp16
bI00
S'*H\xf1I\xed#M\xbfH\xfb\xf8j\x97\xce\x93?p\xa0\x8an\xcf=\xb0?'
p17
tp18
bsS'average_top'
p19
g4
(g5
(I0
tp20
g7
tp21
Rp22
(I1
(I3
tp23
g14
I00
S'O\x0cbow\x8b\x82?oxG\x8cU\xfd\x9d?Ia\x9b%\x8f\xd2\xa6\xbf'
p24
tp25
bsS'average_total'
p26
g4
(g5
(I0
tp27
g7
tp28
Rp29
(I1
(I3
tp30
g14
I00
S'\xe5\xc3yl\x94\xdec?\xeb\xad\xf6\xb7\x7f3\x97?`\x1a\x07Q\x87\x18\x9c?'
p31
tp32
bsS'S_total'
p33
F9.937201759624127
s.