(dp0
S'S_top'
p1
F-4.39554772700606
sS'S_bottom'
p2
F14.271830229096674
sS'average_bottom'
p3
cnumpy.core.multiarray
_reconstruct
p4
(cnumpy
ndarray
p5
(I0
tp6
S'b'
p7
tp8
Rp9
(I1
(I3
tp10
cnumpy
dtype
p11
(S'f8'
p12
I0
I1
tp13
Rp14
(I3
S'<'
p15
NNNI-1
I-1
I0
tp16
bI00
S'P\xcc\x9a-+7A\xbf\xf7\xd7j\x88\xe2\xf4\x94?\x7f\xb8\x1d\x1c\x1b-\xb0?'
p17
tp18
bsS'average_top'
p19
g4
(g5
(I0
tp20
g7
tp21
Rp22
(I1
(I3
tp23
g14
I00
S'E\x12\xec(\xe6\n\x82?3\xd4\xdeH\xc2X\x9e?\xcaY\x9bcW\x8f\xa8\xbf'
p24
tp25
bsS'average_total'
p26
g4
(g5
(I0
tp27
g7
tp28
Rp29
(I1
(I3
tp30
g14
I00
S'\x896\xdf\xed\xf3/e?\x92J\x82\x82+\x16\x98?>7\xb2\xd8v\xc3\x9a?'
p31
tp32
bsS'S_total'
p33
F9.876282502090717
s.