(dp0
S'S_top'
p1
F-4.432025540581056
sS'S_bottom'
p2
F14.248742682694264
sS'average_bottom'
p3
cnumpy.core.multiarray
_reconstruct
p4
(cnumpy
ndarray
p5
(I0
tp6
S'b'
p7
tp8
Rp9
(I1
(I3
tp10
cnumpy
dtype
p11
(S'f8'
p12
I0
I1
tp13
Rp14
(I3
S'<'
p15
NNNI-1
I-1
I0
tp16
bI00
S'\x0e\x17\n7\xfeA(\xbf\xdd\xe9\xd4\x1f\xbe\x17\x96?\xe4&\xb3\xfe6!\xb0?'
p17
tp18
bsS'average_top'
p19
g4
(g5
(I0
tp20
g7
tp21
Rp22
(I1
(I3
tp23
g14
I00
S'\x06\x9e_\xc2\xeek\x81?_\x13a\x1dj\xb6\x9e?\xb3\xfb\xdd2\x1e)\xaa\xbf'
p24
tp25
bsS'average_total'
p26
g4
(g5
(I0
tp27
g7
tp28
Rp29
(I1
(I3
tp30
g14
I00
S'\xbdJg\x91\xc77f?\x9di\tPK\xf7\x98?8\x042\x84\x92\x92\x99?'
p31
tp32
bsS'S_total'
p33
F9.81671714211328
s.