(dp0
S'S_top'
p1
F-4.498117907298716
sS'S_bottom'
p2
F14.204275880432604
sS'average_bottom'
p3
cnumpy.core.multiarray
_reconstruct
p4
(cnumpy
ndarray
p5
(I0
tp6
S'b'
p7
tp8
Rp9
(I1
(I3
tp10
cnumpy
dtype
p11
(S'f8'
p12
I0
I1
tp13
Rp14
(I3
S'<'
p15
NNNI-1
I-1
I0
tp16
bI00
S'\x1f\xf7\xc1\x8f9<:?<\xd4\xcdP\xb5H\x98?\xfc\x84\xac\xdf\x1d\x12\xb0?'
p17
tp18
bsS'average_top'
p19
g4
(g5
(I0
tp20
g7
tp21
Rp22
(I1
(I3
tp23
g14
I00
S'z\xc3\xb1\xcc\x7f\x02\x80?\xab\xfc\x02\xa5Ly\x9f?\x06\xd5Yir\xe2\xac\xbf'
p24
tp25
bsS'average_total'
p26
g4
(g5
(I0
tp27
g7
tp28
Rp29
(I1
(I3
tp30
g14
I00
S'\\F\xf4vO\x88g?\xec\xc0\x8b\xdc;\xae\x9a?B\x80%\x9cm\x99\x97?'
p31
tp32
bsS'S_total'
p33
F9.706157973133958
s.