(dp0
S'S_top'
p1
F-4.52606630870894
sS'S_bottom'
p2
F14.184241819912838
sS'average_bottom'
p3
cnumpy.core.multiarray
_reconstruct
p4
(cnumpy
ndarray
p5
(I0
tp6
S'b'
p7
tp8
Rp9
(I1
(I3
tp10
cnumpy
dtype
p11
(S'f8'
p12
I0
I1
tp13
Rp14
(I3
S'<'
p15
NNNI-1
I-1
I0
tp16
bI00
S'\nf\xf4Q\x91\xbcD?B\x1ad\x98.R\x99?@\xdc\x81\x84}\x0c\xb0?'
p17
tp18
bsS'average_top'
p19
g4
(g5
(I0
tp20
g7
tp21
Rp22
(I1
(I3
tp23
g14
I00
S'\x8c3\x87\xf5\x02\x99~?5\xda\xf1No\xdf\x9f?}\xd6b\xd3\xf4\xfb\xad\xbf'
p24
tp25
bsS'average_total'
p26
g4
(g5
(I0
tp27
g7
tp28
Rp29
(I1
(I3
tp30
g14
I00
S'E\x9d\x17F\xbb\xdag?g\xef\x88\x0bC\x81\x9b?6\xee\xd8\xbe\xc0\xce\x96?'
p31
tp32
bsS'S_total'
p33
F9.658175511203899
s.