(dp0
S'S_top'
p1
F-4.549557792999033
sS'S_bottom'
p2
F14.16655964811987
sS'average_bottom'
p3
cnumpy.core.multiarray
_reconstruct
p4
(cnumpy
ndarray
p5
(I0
tp6
S'b'
p7
tp8
Rp9
(I1
(I3
tp10
cnumpy
dtype
p11
(S'f8'
p12
I0
I1
tp13
Rp14
(I3
S'<'
p15
NNNI-1
I-1
I0
tp16
bI00
S'\xb9\x01\x88>d\xc6J?\x0e\x02\x8c\x01\x00O\x9a?B\xe3|\xaa\xd9\x06\xb0?'
p17
tp18
bsS'average_top'
p19
g4
(g5
(I0
tp20
g7
tp21
Rp22
(I1
(I3
tp23
g14
I00
S's\x19\xa7\xbe\x1cB}?\x8d\x91)\xd3\xa6$\xa0?\x8a\x0e\x80\x9bM\xe6\xae\xbf'
p24
tp25
bsS'average_total'
p26
g4
(g5
(I0
tp27
g7
tp28
Rp29
(I1
(I3
tp30
g14
I00
S'*\x8c\x1b\xab\xc5\xf7g?\xc2T?\xdd\x18M\x9c?O|\xbc\x95{#\x96?'
p31
tp32
bsS'S_total'
p33
F9.617001855120819
s.