(dp0
S'S_top'
p1
F-4.567878317063924
sS'S_bottom'
p2
F14.151682968906876
sS'average_bottom'
p3
cnumpy.core.multiarray
_reconstruct
p4
(cnumpy
ndarray
p5
(I0
tp6
S'b'
p7
tp8
Rp9
(I1
(I3
tp10
cnumpy
dtype
p11
(S'f8'
p12
I0
I1
tp13
Rp14
(I3
S'<'
p15
NNNI-1
I-1
I0
tp16
bI00
S'ul\xb5\xaeM\nO?\xee\xb3\\dp=\x9b?G\x96\x8e\xf1p\x00\xb0?'
p17
tp18
bsS'average_top'
p19
g4
(g5
(I0
tp20
g7
tp21
Rp22
(I1
(I3
tp23
g14
I00
S'\x02)R\xe8X\x0e|?\xd3\xbd35\x92[\xa0?2\xbe\xfb1\xcd\xa0\xaf\xbf'
p24
tp25
bsS'average_total'
p26
g4
(g5
(I0
tp27
g7
tp28
Rp29
(I1
(I3
tp30
g14
I00
S'\xbd\x11\xf9F\x95\xe0g?Z\x07~v\xab\x10\x9d?\x88*\xb6\x7f\x0f\x96\x95?'
p31
tp32
bsS'S_total'
p33
F9.583804651842986
s.