(dp0
S'S_top'
p1
F-4.580469820187986
sS'S_bottom'
p2
F14.139875695401098
sS'average_bottom'
p3
cnumpy.core.multiarray
_reconstruct
p4
(cnumpy
ndarray
p5
(I0
tp6
S'b'
p7
tp8
Rp9
(I1
(I3
tp10
cnumpy
dtype
p11
(S'f8'
p12
I0
I1
tp13
Rp14
(I3
S'<'
p15
NNNI-1
I-1
I0
tp16
bI00
S'\x13\x9d\xb7]\xd5\xacP?\x7f\xb0J\x01\x06\x1c\x9c?b\xec\x1cge\xf1\xaf?'
p17
tp18
bsS'average_top'
p19
g4
(g5
(I0
tp20
g7
tp21
Rp22
(I1
(I3
tp23
g14
I00
S'uC,t\xc7\x08{?\xe3\x96qAt\x94\xa0?\x08\xbdv\x88\xcb\x15\xb0\xbf'
p24
tp25
bsS'average_total'
p26
g4
(g5
(I0
tp27
g7
tp28
Rp29
(I1
(I3
tp30
g14
I00
S'\xa7\x12\xd3C\xc4\x94g?z\xb7:O\xfb\xca\x9d?\xdd\x0b\x9e\x1a\xe3$\x95?'
p31
tp32
bsS'S_total'
p33
F9.559405875213214
s.