(dp0
S'S_top'
p1
F-4.586987540351186
sS'S_bottom'
p2
F14.131291177024291
sS'average_bottom'
p3
cnumpy.core.multiarray
_reconstruct
p4
(cnumpy
ndarray
p5
(I0
tp6
S'b'
p7
tp8
Rp9
(I1
(I3
tp10
cnumpy
dtype
p11
(S'f8'
p12
I0
I1
tp13
Rp14
(I3
S'<'
p15
NNNI-1
I-1
I0
tp16
bI00
S'}\xc7\x97a6\xc4P?6/Y\xbc\x83\xe9\x9c?o\xd4\xbcWv\xde\xaf?'
p17
tp18
bsS'average_top'
p19
g4
(g5
(I0
tp20
g7
tp21
Rp22
(I1
(I3
tp23
g14
I00
S't\xc1\x96\xb2\xb49z?\x04G\x87\xc9$\xcf\xa0?U\x8c\xff\xae\xc9C\xb0\xbf'
p24
tp25
bsS'average_total'
p26
g4
(g5
(I0
tp27
g7
tp28
Rp29
(I1
(I3
tp30
g14
I00
S'\x7f\xd5\xef\x0c\x83\x12g?\xf4u\xbc5\x1a{\x9e?hxh\x96Q\xce\x94?'
p31
tp32
bsS'S_total'
p33
F9.544303636673204
s.