(dp0
S'S_top'
p1
F-4.587366399612575
sS'S_bottom'
p2
F14.126009134536634
sS'average_bottom'
p3
cnumpy.core.multiarray
_reconstruct
p4
(cnumpy
ndarray
p5
(I0
tp6
S'b'
p7
tp8
Rp9
(I1
(I3
tp10
cnumpy
dtype
p11
(S'f8'
p12
I0
I1
tp13
Rp14
(I3
S'<'
p15
NNNI-1
I-1
I0
tp16
bI00
S'\x03z\xf3\x9c>rO?e\xc4k\x8a\x05\xa5\x9d?\x85\x15/\x1c\xb2\xc7\xaf?'
p17
tp18
bsS'average_top'
p19
g4
(g5
(I0
tp20
g7
tp21
Rp22
(I1
(I3
tp23
g14
I00
S'\xe5L\xd8xM\xa6y?\xb6\x0f\x92\xc3b\x0b\xa1?z\xd2\xb5_.[\xb0\xbf'
p24
tp25
bsS'average_total'
p26
g4
(g5
(I0
tp27
g7
tp28
Rp29
(I1
(I3
tp30
g14
I00
S'\xf7;U\xa66Wf?\xee\xb8\x9d\xc6D \x9f?\x13%\xf1\xb8\xc5\x90\x94?'
p31
tp32
bsS'S_total'
p33
F9.538642734924265
s.