(dp0
S'S_top'
p1
F-4.581837210312166
sS'S_bottom'
p2
F14.12405680174247
sS'average_bottom'
p3
cnumpy.core.multiarray
_reconstruct
p4
(cnumpy
ndarray
p5
(I0
tp6
S'b'
p7
tp8
Rp9
(I1
(I3
tp10
cnumpy
dtype
p11
(S'f8'
p12
I0
I1
tp13
Rp14
(I3
S'<'
p15
NNNI-1
I-1
I0
tp16
bI00
S'\xffg#,Z\xfeJ?\x10\x18\x06A\tN\x9e?\x00\xa4C\xd7\x16\xad\xaf?'
p17
tp18
bsS'average_top'
p19
g4
(g5
(I0
tp20
g7
tp21
Rp22
(I1
(I3
tp23
g14
I00
S'\xef\xa7+\x80\xe0Py?\xf1\x1d\x87Q\xdfH\xa1?%\x05\xab\xd4\x1b]\xb0\xbf'
p24
tp25
bsS'average_total'
p26
g4
(g5
(I0
tp27
g7
tp28
Rp29
(I1
(I3
tp30
g14
I00
S'\xb0\xa67\xdaG`e?\xacp\xde\xa6\xef\xb9\x9f?c\xc2\xa6\x0e\xbaj\x94?'
p31
tp32
bsS'S_total'
p33
F9.5422195914301
s.