(dp0
S'S_top'
p1
F-4.570917769872788
sS'S_bottom'
p2
F14.125396373705081
sS'average_bottom'
p3
cnumpy.core.multiarray
_reconstruct
p4
(cnumpy
ndarray
p5
(I0
tp6
S'b'
p7
tp8
Rp9
(I1
(I3
tp10
cnumpy
dtype
p11
(S'f8'
p12
I0
I1
tp13
Rp14
(I3
S'<'
p15
NNNI-1
I-1
I0
tp16
bI00
S'8Q\xdcs[$D?i\x8d\x83\xbey\xe4\x9e?\xd3R\x9c\x00\x01\x8f\xaf?'
p17
tp18
bsS'average_top'
p19
g4
(g5
(I0
tp20
g7
tp21
Rp22
(I1
(I3
tp23
g14
I00
S'\x03t[\x86\xeb8y?\xb4\x1elsI\x87\xa1?\x0b\xec/\xcf\xfeJ\xb0\xbf'
p24
tp25
bsS'average_total'
p26
g4
(g5
(I0
tp27
g7
tp28
Rp29
(I1
(I3
tp30
g14
I00
S'\xf9Y\x1e\xd2\xf9+d?\x84a\x16`\xeb#\xa0?>b\xb9\x8b\xc3Z\x94?'
p31
tp32
bsS'S_total'
p33
F9.554478603832504
s.