(dp0
S'S_top'
p1
F-4.5553734001475
sS'S_bottom'
p2
F14.129921118250609
sS'average_bottom'
p3
cnumpy.core.multiarray
_reconstruct
p4
(cnumpy
ndarray
p5
(I0
tp6
S'b'
p7
tp8
Rp9
(I1
(I3
tp10
cnumpy
dtype
p11
(S'f8'
p12
I0
I1
tp13
Rp14
(I3
S'<'
p15
NNNI-1
I-1
I0
tp16
bI00
S'jR\xd8\xe8\x84\xdd5?*\x85\x89\xbc\xach\x9f?\x1c}\xf3Q$n\xaf?'
p17
tp18
bsS'average_top'
p19
g4
(g5
(I0
tp20
g7
tp21
Rp22
(I1
(I3
tp23
g14
I00
S'\xb75\xc6\xc1B[y?\x16d\xcb9U\xc6\xa1?`\x9c\x87\xf9\x88&\xb0\xbf'
p24
tp25
bsS'average_total'
p26
g4
(g5
(I0
tp27
g7
tp28
Rp29
(I1
(I3
tp30
g14
I00
S';\xdd\x88^\xef\xb9b?\xcb\xe8\xbdL\x00e\xa0?\x80\xc3\x83\x9b\x8f_\x94?'
p31
tp32
bsS'S_total'
p33
F9.574547718103174
s.