(dp0
S'S_top'
p1
F-4.53613317739089
sS'S_bottom'
p2
F14.137468385611522
sS'average_bottom'
p3
cnumpy.core.multiarray
_reconstruct
p4
(cnumpy
ndarray
p5
(I0
tp6
S'b'
p7
tp8
Rp9
(I1
(I3
tp10
cnumpy
dtype
p11
(S'f8'
p12
I0
I1
tp13
Rp14
(I3
S'<'
p15
NNNI-1
I-1
I0
tp16
bI00
S'\xb1\xa0\x87\xa8H\x98\xf0\xbe\xf6E\xf5\xc5W\xdb\x9f?;\xc8B!\x81K\xaf?'
p17
tp18
bsS'average_top'
p19
g4
(g5
(I0
tp20
g7
tp21
Rp22
(I1
(I3
tp23
g14
I00
S'\xa5w3>E\xb2y?z\xbc?)\xc0\x05\xa2?H\x88\xca\x17J\xe3\xaf\xbf'
p24
tp25
bsS'average_total'
p26
g4
(g5
(I0
tp27
g7
tp28
Rp29
(I1
(I3
tp30
g14
I00
S'\xcf\xa7\xaaLZ\x0ba?\xa0\x13\xfe\xf3\\\xa0\xa0?\x99-\xb6\xbc\xe5w\x94?'
p31
tp32
bsS'S_total'
p33
F9.60133520822046
s.