(dp0
S'S_top'
p1
F-4.514180748413076
sS'S_bottom'
p2
F14.147851841577921
sS'average_bottom'
p3
cnumpy.core.multiarray
_reconstruct
p4
(cnumpy
ndarray
p5
(I0
tp6
S'b'
p7
tp8
Rp9
(I1
(I3
tp10
cnumpy
dtype
p11
(S'f8'
p12
I0
I1
tp13
Rp14
(I3
S'<'
p15
NNNI-1
I-1
I0
tp16
bI00
S'M\xbe\x81\xd8\xe3\x0f<\xbf\x00\x18"\xbb\xbd\x1e\xa0?s\xf6\xaf\xecT(\xaf?'
p17
tp18
bsS'average_top'
p19
g4
(g5
(I0
tp20
g7
tp21
Rp22
(I1
(I3
tp23
g14
I00
S'\x03w:N:6z?N9#fQE\xa2?u[-%\xcf\\\xaf\xbf'
p24
tp25
bsS'average_total'
p26
g4
(g5
(I0
tp27
g7
tp28
Rp29
(I1
(I3
tp30
g14
I00
S'K\xc6`\x9f\x94E^?\x8ab>\xebC\xd6\xa0?(%\x9f3\xa7\xa2\x94?'
p31
tp32
bsS'S_total'
p33
F9.633671093164963
s.