(dp0
S'S_top'
p1
F-4.465868530078479
sS'S_bottom'
p2
F14.176437743355965
sS'average_bottom'
p3
cnumpy.core.multiarray
_reconstruct
p4
(cnumpy
ndarray
p5
(I0
tp6
S'b'
p7
tp8
Rp9
(I1
(I3
tp10
cnumpy
dtype
p11
(S'f8'
p12
I0
I1
tp13
Rp14
(I3
S'<'
p15
NNNI-1
I-1
I0
tp16
bI00
S'\xee\x14\xceB\xb7"W\xbf\x87U1\xeb\x9cj\xa0?\xbf\xcf\x07\xcbC\xe6\xae?'
p17
tp18
bsS'average_top'
p19
g4
(g5
(I0
tp20
g7
tp21
Rp22
(I1
(I3
tp23
g14
I00
S'\n\xa20\xb9\x87\x9d{?{\x93\xeeM\x1d\xc4\xa2?\xe2\x91V)\xa8\x0b\xae\xbf'
p24
tp25
bsS'average_total'
p26
g4
(g5
(I0
tp27
g7
tp28
Rp29
(I1
(I3
tp30
g14
I00
S'\x9a\x93\xacByeU?\xb2\x97*\xa5\x1c3\xa1?\xe2\xc9\xf5yT+\x95?'
p31
tp32
bsS'S_total'
p33
F9.710569213277411
s.