(dp0
S'S_top'
p1
F4.471567062882588
sS'S_bottom'
p2
F4.39448783437045
sS'average_bottom'
p3
cnumpy.core.multiarray
_reconstruct
p4
(cnumpy
ndarray
p5
(I0
tp6
S'b'
p7
tp8
Rp9
(I1
(I3
tp10
cnumpy
dtype
p11
(S'f8'
p12
I0
I1
tp13
Rp14
(I3
S'<'
p15
NNNI-1
I-1
I0
tp16
bI00
S'\x0eX\x84,\x07, ?\xb0\xeetz#\x03&?\x1f+\x93\x91\xc1c\xeb?'
p17
tp18
bsS'average_top'
p19
g4
(g5
(I0
tp20
g7
tp21
Rp22
(I1
(I3
tp23
g14
I00
S'\x9bK\xba\x9e"\xd9\x17\xbf6\xd8\x1a\xce\x81\xfc)\xbfL8g0x\xa2\xe3?'
p24
tp25
bsS'average_total'
p26
g4
(g5
(I0
tp27
g7
tp28
Rp29
(I1
(I3
tp30
g14
I00
S"^\x03\x95H\x0f:\x0b?\xf8.\xea\xb9'\r\x08?\xfc\xed\xf0\xc4\xff\xcd\xe8?"
p31
tp32
bsS'S_total'
p33
F8.866054897252958
s.