(dp0
S'S_top'
p1
F-4.416653174934359
sS'S_bottom'
p2
F14.214442876952104
sS'average_bottom'
p3
cnumpy.core.multiarray
_reconstruct
p4
(cnumpy
ndarray
p5
(I0
tp6
S'b'
p7
tp8
Rp9
(I1
(I3
tp10
cnumpy
dtype
p11
(S'f8'
p12
I0
I1
tp13
Rp14
(I3
S'<'
p15
NNNI-1
I-1
I0
tp16
bI00
S'\xb5\xe8">x\xe7d\xbf\xa1D~\xea|\x9d\xa0?\x07\x9d\x7fI\x88\xb4\xae?'
p17
tp18
bsS'average_top'
p19
g4
(g5
(I0
tp20
g7
tp21
Rp22
(I1
(I3
tp23
g14
I00
S'\x0c\x01\x17b\xab8}?:%9P A\xa3?"6{\x83\x03~\xac\xbf'
p24
tp25
bsS'average_total'
p26
g4
(g5
(I0
tp27
g7
tp28
Rp29
(I1
(I3
tp30
g14
I00
S'\xb9n\x15d\xa7-F?\xcc\r\x1c\xee\xb2~\xa1?b\xa9\x07\xf8\x1c\xf2\x95?'
p31
tp32
bsS'S_total'
p33
F9.797789702017727
s.