(dp0
S'S_top'
p1
F-4.393049247833128
sS'S_bottom'
p2
F14.236549103340195
sS'average_bottom'
p3
cnumpy.core.multiarray
_reconstruct
p4
(cnumpy
ndarray
p5
(I0
tp6
S'b'
p7
tp8
Rp9
(I1
(I3
tp10
cnumpy
dtype
p11
(S'f8'
p12
I0
I1
tp13
Rp14
(I3
S'<'
p15
NNNI-1
I-1
I0
tp16
bI00
S'\xbe\xe2P~G\xe0i\xbf\x853\xa0dY\xaf\xa0?\xdd~\x81|\xb9\xa5\xae?'
p17
tp18
bsS'average_top'
p19
g4
(g5
(I0
tp20
g7
tp21
Rp22
(I1
(I3
tp23
g14
I00
S'\xf62\x01\xd1\xa2\xfc}?Q\xe2Rj`~\xa3?kB8~\x8a\xab\xab\xbf'
p24
tp25
bsS'average_total'
p26
g4
(g5
(I0
tp27
g7
tp28
Rp29
(I1
(I3
tp30
g14
I00
S'\x0f\xa9\x8e/\x1c\xec5?\xc7\xfdx\xeb\x05\x9f\xa1?0\x86p\xf2\xaej\x96?'
p31
tp32
bsS'S_total'
p33
F9.843499855507346
s.