(dp0
S'S_top'
p1
F-4.3118983949933325
sS'S_bottom'
p2
F14.338808921363693
sS'average_bottom'
p3
cnumpy.core.multiarray
_reconstruct
p4
(cnumpy
ndarray
p5
(I0
tp6
S'b'
p7
tp8
Rp9
(I1
(I3
tp10
cnumpy
dtype
p11
(S'f8'
p12
I0
I1
tp13
Rp14
(I3
S'<'
p15
NNNI-1
I-1
I0
tp16
bI00
S'\xc7\xabVm;2w\xbfec\xcd\\\x12\xd4\xa0?\x06M\x10\x00\xf1\xca\xae?'
p17
tp18
bsS'average_top'
p19
g4
(g5
(I0
tp20
g7
tp21
Rp22
(I1
(I3
tp23
g14
I00
S'!v\xcc\xae=\xe3\x7f?\x9b\xb3\xbb\xa2\xbcc\xa4?H-\x1f\xe7Rk\xa8\xbf'
p24
tp25
bsS'average_total'
p26
g4
(g5
(I0
tp27
g7
tp28
Rp29
(I1
(I3
tp30
g14
I00
S"\xd7UT\x9a\x1cWS\xbf\xa3\tm-\xf5\x03\xa2?'1y\xf6\x1c\xc7\x98?"
p31
tp32
bsS'S_total'
p33
F10.026910526370283
s.