(dp0
S'S_top'
p1
F-4.295501525249527
sS'S_bottom'
p2
F14.365783181057676
sS'average_bottom'
p3
cnumpy.core.multiarray
_reconstruct
p4
(cnumpy
ndarray
p5
(I0
tp6
S'b'
p7
tp8
Rp9
(I1
(I3
tp10
cnumpy
dtype
p11
(S'f8'
p12
I0
I1
tp13
Rp14
(I3
S'<'
p15
NNNI-1
I-1
I0
tp16
bI00
S'0\xcc\x98\x92h\xb9y\xbfD\xe5\xdf\xe7\x97\xd7\xa0?\x03\xe9\n\xa2H\xf0\xae?'
p17
tp18
bsS'average_top'
p19
g4
(g5
(I0
tp20
g7
tp21
Rp22
(I1
(I3
tp23
g14
I00
S'\xda`\r\xbcC\xee\x7f?Jin\xb6U\x97\xa4?LJ\xbc\xa5\xe9\xab\xa7\xbf'
p24
tp25
bsS'average_total'
p26
g4
(g5
(I0
tp27
g7
tp28
Rp29
(I1
(I3
tp30
g14
I00
S'T.@Y9\x06Z\xbfnU%3\x81\x17\xa2?\xd8\r\xf8o\x82x\x99?'
p31
tp32
bsS'S_total'
p33
F10.07028165580808
s.