(dp0
S'S_top'
p1
F-4.280683052520351
sS'S_bottom'
p2
F14.39239325338709
sS'average_bottom'
p3
cnumpy.core.multiarray
_reconstruct
p4
(cnumpy
ndarray
p5
(I0
tp6
S'b'
p7
tp8
Rp9
(I1
(I3
tp10
cnumpy
dtype
p11
(S'f8'
p12
I0
I1
tp13
Rp14
(I3
S'<'
p15
NNNI-1
I-1
I0
tp16
bI00
S'\xff\xa7\x00k=4|\xbf\xc7\x84a\xc6\xe4\xd9\xa0?$\x05\xfein!\xaf?'
p17
tp18
bsS'average_top'
p19
g4
(g5
(I0
tp20
g7
tp21
Rp22
(I1
(I3
tp23
g14
I00
S'm\xadS\x0c\xff\xc3\x7f?\xb1\xb3\x86K\xdd\xc7\xa4?+\xb6\xb9&\x11\xf7\xa6\xbf'
p24
tp25
bsS'average_total'
p26
g4
(g5
(I0
tp27
g7
tp28
Rp29
(I1
(I3
tp30
g14
I00
S')%xb\xbcm`\xbf|&E\xf16)\xa2?M\xe3\xd4L\x9a2\x9a?'
p31
tp32
bsS'S_total'
p33
F10.111710200866579
s.