(dp0
S'S_top'
p1
F-4.255514500534493
sS'S_bottom'
p2
F14.442714426186118
sS'average_bottom'
p3
cnumpy.core.multiarray
_reconstruct
p4
(cnumpy
ndarray
p5
(I0
tp6
S'b'
p7
tp8
Rp9
(I1
(I3
tp10
cnumpy
dtype
p11
(S'f8'
p12
I0
I1
tp13
Rp14
(I3
S'<'
p15
NNNI-1
I-1
I0
tp16
bI00
S';g\x16\x04\x13}\x80\xbf{\x1c\x0cOm\xdc\xa0?\x9b\x02X\x15\x16\xa6\xaf?'
p17
tp18
bsS'average_top'
p19
g4
(g5
(I0
tp20
g7
tp21
Rp22
(I1
(I3
tp23
g14
I00
S'\xa1\x89\xa16K\xc9~?N\xd9~_A\x1e\xa5?\xe4\xe4(\xe0\xe1\xb0\xa5\xbf'
p24
tp25
bsS'average_total'
p26
g4
(g5
(I0
tp27
g7
tp28
Rp29
(I1
(I3
tp30
g14
I00
S'\xe4\xce?d\x16rg\xbf\xc2\xb1\xafD\xb3G\xa2?\xbd\xe4os\xee\xbc\x9b?'
p31
tp32
bsS'S_total'
p33
F10.187199925651694
s.