(dp0
S'S_top'
p1
F4.555572016049781
sS'S_bottom'
p2
F4.354406688374501
sS'average_bottom'
p3
cnumpy.core.multiarray
_reconstruct
p4
(cnumpy
ndarray
p5
(I0
tp6
S'b'
p7
tp8
Rp9
(I1
(I3
tp10
cnumpy
dtype
p11
(S'f8'
p12
I0
I1
tp13
Rp14
(I3
S'<'
p15
NNNI-1
I-1
I0
tp16
bI00
S'\x99P<\xd0U\xd1 ?ax\xb0`o\xe3&?J=\x97\x89^T\xeb?'
p17
tp18
bsS'average_top'
p19
g4
(g5
(I0
tp20
g7
tp21
Rp22
(I1
(I3
tp23
g14
I00
S'\xfdU\xc4*\xa8\xfc\x14\xbf[\xeb\xb5\xe4\x99\xe8)\xbf3"\x16\x99\xa6\x1d\xe3?'
p24
tp25
bsS'average_total'
p26
g4
(g5
(I0
tp27
g7
tp28
Rp29
(I1
(I3
tp30
g14
I00
S'\xea\xfcA\x162\xdb\x0e?\xa2\x92\xa4\x8d\xd2}\n?%\x1c\x9c\xf6w\x97\xe8?'
p31
tp32
bsS'S_total'
p33
F8.90997870442423
s.