(dp0
S'S_top'
p1
F-4.193008197598248
sS'S_bottom'
p2
F14.559840023651807
sS'average_bottom'
p3
cnumpy.core.multiarray
_reconstruct
p4
(cnumpy
ndarray
p5
(I0
tp6
S'b'
p7
tp8
Rp9
(I1
(I3
tp10
cnumpy
dtype
p11
(S'f8'
p12
I0
I1
tp13
Rp14
(I3
S'<'
p15
NNNI-1
I-1
I0
tp16
bI00
S'\xc0\xd1dtp\xaf\x8b\xbf|\xd5\\t\x00\xe2\xa0?\x9c\xf4\xaa\x15\x0bx\xb2?'
p17
tp18
bsS'average_top'
p19
g4
(g5
(I0
tp20
g7
tp21
Rp22
(I1
(I3
tp23
g14
I00
S'\xf4B\xfd\xecwRd?\x0bs\r\xaas\xb1\xa5?\xf6\xd0\\\xea\x19_\xa1\xbf'
p24
tp25
bsS'average_total'
p26
g4
(g5
(I0
tp27
g7
tp28
Rp29
(I1
(I3
tp30
g14
I00
S';\x0f\x06@q\xc3\x80\xbf\x14\xc4-^{|\xa2?\xd5\x03 \x1a\xba\xd5\xa2?'
p31
tp32
bsS'S_total'
p33
F10.366831826053321
s.