(dp0
S'S_top'
p1
F-4.1934834362695605
sS'S_bottom'
p2
F14.55406986022938
sS'average_bottom'
p3
cnumpy.core.multiarray
_reconstruct
p4
(cnumpy
ndarray
p5
(I0
tp6
S'b'
p7
tp8
Rp9
(I1
(I3
tp10
cnumpy
dtype
p11
(S'f8'
p12
I0
I1
tp13
Rp14
(I3
S'<'
p15
NNNI-1
I-1
I0
tp16
bI00
S'\xd6)\xc4p\xd0i\x8c\xbf7\x05\xf8\x0c!\xdf\xa0?\x99*\xb4\x05l\xb2\xb2?'
p17
tp18
bsS'average_top'
p19
g4
(g5
(I0
tp20
g7
tp21
Rp22
(I1
(I3
tp23
g14
I00
S'L\xc2d\x1f\xf7E_?lx"\xa9\x0e\xa3\xa5?y\xaev\xcb7\'\xa1\xbf'
p24
tp25
bsS'average_total'
p26
g4
(g5
(I0
tp27
g7
tp28
Rp29
(I1
(I3
tp30
g14
I00
S'\xcf\xc7\xf41\xa6\xa3\x81\xbf\x12\x04\x95\xc5\xc4u\xa2?\x9f\xf8\xe3n16\xa3?'
p31
tp32
bsS'S_total'
p33
F10.360586423959653
s.