(dp0
S'S_top'
p1
F-4.197371808187494
sS'S_bottom'
p2
F14.537098876465219
sS'average_bottom'
p3
cnumpy.core.multiarray
_reconstruct
p4
(cnumpy
ndarray
p5
(I0
tp6
S'b'
p7
tp8
Rp9
(I1
(I3
tp10
cnumpy
dtype
p11
(S'f8'
p12
I0
I1
tp13
Rp14
(I3
S'<'
p15
NNNI-1
I-1
I0
tp16
bI00
S"\xb8iR+\xa1\xce\x8d\xbf\xca\xd1\xb5\x95\xf4\xd5\xa0?*\xe3\x11y' \xb3?"
p17
tp18
bsS'average_top'
p19
g4
(g5
(I0
tp20
g7
tp21
Rp22
(I1
(I3
tp23
g14
I00
S'6\x98|\xff!\xf9H?\xd34W\x96\xf6}\xa5?Fy8\xa4\x16\xbb\xa0\xbf'
p24
tp25
bsS'average_total'
p26
g4
(g5
(I0
tp27
g7
tp28
Rp29
(I1
(I3
tp30
g14
I00
S'\x7f\x89\xd3\xc5\xeaY\x83\xbf\xb8Y\xec\xc9Ic\xa2?sb\x83\xd3\x8b\xec\xa3?'
p31
tp32
bsS'S_total'
p33
F10.339727068277702
s.