(dp0
S'S_top'
p1
F-4.20080156529013
sS'S_bottom'
p2
F14.526283853345673
sS'average_bottom'
p3
cnumpy.core.multiarray
_reconstruct
p4
(cnumpy
ndarray
p5
(I0
tp6
S'b'
p7
tp8
Rp9
(I1
(I3
tp10
cnumpy
dtype
p11
(S'f8'
p12
I0
I1
tp13
Rp14
(I3
S'<'
p15
NNNI-1
I-1
I0
tp16
bI00
S"\xed\xe2w3'z\x8e\xbftSFE\x8a\xcf\xa0?.\x16\x03\xd1\xd4R\xb3?"
p17
tp18
bsS'average_top'
p19
g4
(g5
(I0
tp20
g7
tp21
Rp22
(I1
(I3
tp23
g14
I00
S'3\xaa\xa3\xa5\x9c\x9a)?\xff68\x1e\xffg\xa5?\xb8\xc3\xfa\x17\xe9\x85\xa0\xbf'
p24
tp25
bsS'average_total'
p26
g4
(g5
(I0
tp27
g7
tp28
Rp29
(I1
(I3
tp30
g14
I00
S'!4\xe2DQ/\x84\xbf\xc7\xae\xebn\xb0W\xa2?\xff\xe1\xc2\x7f\xd7A\xa4?'
p31
tp32
bsS'S_total'
p33
F10.325482288055493
s.