(dp0
S'S_top'
p1
F-4.205196340462189
sS'S_bottom'
p2
F14.514185724700067
sS'average_bottom'
p3
cnumpy.core.multiarray
_reconstruct
p4
(cnumpy
ndarray
p5
(I0
tp6
S'b'
p7
tp8
Rp9
(I1
(I3
tp10
cnumpy
dtype
p11
(S'f8'
p12
I0
I1
tp13
Rp14
(I3
S'<'
p15
NNNI-1
I-1
I0
tp16
bI00
S'\x1f\xe7\xb8\xe7\xba!\x8f\xbf\xc8IFn\xde\xc7\xa0?\x1fl\x97!]\x82\xb3?'
p17
tp18
bsS'average_top'
p19
g4
(g5
(I0
tp20
g7
tp21
Rp22
(I1
(I3
tp23
g14
I00
S'e\x80\xb9\xf2c\xc07\xbf_\xb9\xff\x16>P\xa5?:ZR\xc8\xeeP\xa0\xbf'
p24
tp25
bsS'average_total'
p26
g4
(g5
(I0
tp27
g7
tp28
Rp29
(I1
(I3
tp30
g14
I00
S'P i\xd8\x82\x00\x85\xbf"\x19D5\xa8J\xa2?\xcbZ\x9f\xb7\xe0\x92\xa4?'
p31
tp32
bsS'S_total'
p33
F10.308989384237975
s.