(dp0
S'S_top'
p1
F4.701853588884014
sS'S_bottom'
p2
F4.288274173295612
sS'average_bottom'
p3
cnumpy.core.multiarray
_reconstruct
p4
(cnumpy
ndarray
p5
(I0
tp6
S'b'
p7
tp8
Rp9
(I1
(I3
tp10
cnumpy
dtype
p11
(S'f8'
p12
I0
I1
tp13
Rp14
(I3
S'<'
p15
NNNI-1
I-1
I0
tp16
bI00
S'D&\xc8g\x1b\xa7"?\xfdM\x1e\x18u\xb4(?\xb0f\xff\x13\xe6,\xeb?'
p17
tp18
bsS'average_top'
p19
g4
(g5
(I0
tp20
g7
tp21
Rp22
(I1
(I3
tp23
g14
I00
S'\xc2\xcb\x81\xd5\xfa\x8e\x10\xbf\xcbh\xc1\x9a\x06\xd8)\xbf\x1a\x8b\x12\xafc#\xe2?'
p24
tp25
bsS'average_total'
p26
g4
(g5
(I0
tp27
g7
tp28
Rp29
(I1
(I3
tp30
g14
I00
S'li\xb8%\xdaY\x13?Tk\x0b\xb7\xfck\x0f?\x00Y\xf3(\xbc)\xe8?'
p31
tp32
bsS'S_total'
p33
F8.990127762179602
s.