(dp0
S'S_top'
p1
F-4.290375464547499
sS'S_bottom'
p2
F14.352721409630647
sS'average_bottom'
p3
cnumpy.core.multiarray
_reconstruct
p4
(cnumpy
ndarray
p5
(I0
tp6
S'b'
p7
tp8
Rp9
(I1
(I3
tp10
cnumpy
dtype
p11
(S'f8'
p12
I0
I1
tp13
Rp14
(I3
S'<'
p15
NNNI-1
I-1
I0
tp16
bI00
S'\x9aJRfP\xcf\x92\xbf\xce8\x16z\xbc(\xa0?\x8d\xe3}Xd\xa9\xb4?'
p17
tp18
bsS'average_top'
p19
g4
(g5
(I0
tp20
g7
tp21
Rp22
(I1
(I3
tp23
g14
I00
S's)\x84\x85\xd5\xfdu\xbfB}\xa0\xe6i3\xa4?\xe3\xc7K\x19P{\x9c\xbf'
p24
tp25
bsS'average_total'
p26
g4
(g5
(I0
tp27
g7
tp28
Rp29
(I1
(I3
tp30
g14
I00
S'\x14\x12p\x02\xbe\xbe\x8c\xbf\xbb5\x87B\xa0\x81\xa1?;\xb0pIW\xcd\xa6?'
p31
tp32
bsS'S_total'
p33
F10.06234594508306
s.