(dp0
S'S_top'
p1
F4.7638309122695
sS'S_bottom'
p2
F4.262509783090549
sS'average_bottom'
p3
cnumpy.core.multiarray
_reconstruct
p4
(cnumpy
ndarray
p5
(I0
tp6
S'b'
p7
tp8
Rp9
(I1
(I3
tp10
cnumpy
dtype
p11
(S'f8'
p12
I0
I1
tp13
Rp14
(I3
S'<'
p15
NNNI-1
I-1
I0
tp16
bI00
S'\xf2I\xb5\xb9D\xbb#?\x1a\xc4U5\n\xc5)?\xc3q\xa8\x9c\n\x14\xeb?'
p17
tp18
bsS'average_top'
p19
g4
(g5
(I0
tp20
g7
tp21
Rp22
(I1
(I3
tp23
g14
I00
S'2\xd2\xfc\x89/\xa1\r\xbf*lU\xda\x8a\x03*\xbf\x91\xed\x01x{\xae\xe1?'
p24
tp25
bsS'average_total'
p26
g4
(g5
(I0
tp27
g7
tp28
Rp29
(I1
(I3
tp30
g14
I00
S'\x1d:\xec\xff\xdc^\x15?\x90\xaa\xf3nm\x04\x11?V\xfb\xc9\xd61\xf2\xe7?'
p31
tp32
bsS'S_total'
p33
F9.026340695359977
s.