(dp0
S'S_top'
p1
F-4.329482705586776
sS'S_bottom'
p2
F14.287258617543037
sS'average_bottom'
p3
cnumpy.core.multiarray
_reconstruct
p4
(cnumpy
ndarray
p5
(I0
tp6
S'b'
p7
tp8
Rp9
(I1
(I3
tp10
cnumpy
dtype
p11
(S'f8'
p12
I0
I1
tp13
Rp14
(I3
S'<'
p15
NNNI-1
I-1
I0
tp16
bI00
S'\xd4E\x90\x05\x98Z\x94\xbft\x97p?\x92V\x9f?\x99\x11\x86\xa7!\xb6\xb4?'
p17
tp18
bsS'average_top'
p19
g4
(g5
(I0
tp20
g7
tp21
Rp22
(I1
(I3
tp23
g14
I00
S'z\x88\xd8\x16}i}\xbfR#\xbd`&\xcc\xa3?\xc2\x8d\xdfG&z\x9b\xbf'
p24
tp25
bsS'average_total'
p26
g4
(g5
(I0
tp27
g7
tp28
Rp29
(I1
(I3
tp30
g14
I00
S"'32\xff1\x05\x90\xbf\x03\xc70+\x92\x0b\xa1?j\xea\xbd\xee/\t\xa7?"
p31
tp32
bsS'S_total'
p33
F9.957775911956233
s.