(dp0
S'S_top'
p1
F4.818271053685791
sS'S_bottom'
p2
F4.241407111230315
sS'average_bottom'
p3
cnumpy.core.multiarray
_reconstruct
p4
(cnumpy
ndarray
p5
(I0
tp6
S'b'
p7
tp8
Rp9
(I1
(I3
tp10
cnumpy
dtype
p11
(S'f8'
p12
I0
I1
tp13
Rp14
(I3
S'<'
p15
NNNI-1
I-1
I0
tp16
bI00
S'\xd8\x0cE\xf8\xd3\xcf$?J\xe9\xf3\xdf\xaf\xfc*?\x14u\x18\xabG\xf7\xea?'
p17
tp18
bsS'average_top'
p19
g4
(g5
(I0
tp20
g7
tp21
Rp22
(I1
(I3
tp23
g14
I00
S'\xa7\x0f\xebbmo\n\xbf\xd9\xdc\x86\x13\xc8_*\xbf\xe5\x94#\xcbv?\xe1?'
p24
tp25
bsS'average_total'
p26
g4
(g5
(I0
tp27
g7
tp28
Rp29
(I1
(I3
tp30
g14
I00
S'x\x853\x1d\xe7W\x17?\x86]8awf\x12?,O\xde\xb4\x03\xba\xe7?'
p31
tp32
bsS'S_total'
p33
F9.059678164916095
s.