(dp0
S'S_top'
p1
F-4.347056455479201
sS'S_bottom'
p2
F14.251978733142963
sS'average_bottom'
p3
cnumpy.core.multiarray
_reconstruct
p4
(cnumpy
ndarray
p5
(I0
tp6
S'b'
p7
tp8
Rp9
(I1
(I3
tp10
cnumpy
dtype
p11
(S'f8'
p12
I0
I1
tp13
Rp14
(I3
S'<'
p15
NNNI-1
I-1
I0
tp16
bI00
S':\xc1\xd4Yb\xf6\x96\xbf\x07\xc4oe\x98`\x9d?QL\xe6\x8d\x94?\xb4?'
p17
tp18
bsS'average_top'
p19
g4
(g5
(I0
tp20
g7
tp21
Rp22
(I1
(I3
tp23
g14
I00
S'\n\x97*Y\xacR\x84\xbf\xea\xb8\xd3??\x95\xa3?Cn\xae$"\xd6\x9d\xbf'
p24
tp25
bsS'average_total'
p26
g4
(g5
(I0
tp27
g7
tp28
Rp29
(I1
(I3
tp30
g14
I00
S'\t\x94=&\x0b\xb2\x92\xbf.\xa4\xfe\xb5\xf1Q\xa0?L\xa16\x88t\x06\xa6?'
p31
tp32
bsS'S_total'
p33
F9.904922277663518
s.