(dp0
S'S_top'
p1
F-4.345739272628359
sS'S_bottom'
p2
F14.254124257639269
sS'average_bottom'
p3
cnumpy.core.multiarray
_reconstruct
p4
(cnumpy
ndarray
p5
(I0
tp6
S'b'
p7
tp8
Rp9
(I1
(I3
tp10
cnumpy
dtype
p11
(S'f8'
p12
I0
I1
tp13
Rp14
(I3
S'<'
p15
NNNI-1
I-1
I0
tp16
bI00
S'\xcd&`z\xe0&\x97\xbf74J|_<\x9d?\xe8SC!\xfe1\xb4?'
p17
tp18
bsS'average_top'
p19
g4
(g5
(I0
tp20
g7
tp21
Rp22
(I1
(I3
tp23
g14
I00
S'\x93f\x0f\x90\x93\xc1\x84\xbf\xb4d]\x02\xf2\x95\xa3?\xbb\xca\xa8\xd3}7\x9e\xbf'
p24
tp25
bsS'average_total'
p26
g4
(g5
(I0
tp27
g7
tp28
Rp29
(I1
(I3
tp30
g14
I00
S'rn:\x19\xdb\xe4\x92\xbfg\x9d\x92P\x1aF\xa0?;\r7\xb3\x1c\xe4\xa5?'
p31
tp32
bsS'S_total'
p33
F9.908384985010722
s.