(dp0
S'S_top'
p1
F4.865114453652142
sS'S_bottom'
p2
F4.224624853394352
sS'average_bottom'
p3
cnumpy.core.multiarray
_reconstruct
p4
(cnumpy
ndarray
p5
(I0
tp6
S'b'
p7
tp8
Rp9
(I1
(I3
tp10
cnumpy
dtype
p11
(S'f8'
p12
I0
I1
tp13
Rp14
(I3
S'<'
p15
NNNI-1
I-1
I0
tp16
bI00
S'\x00\xa9\x8e\n\xc5\xce%?\x08e0\r\xfd\\,?\\\xa6l-C\xd6\xea?'
p17
tp18
bsS'average_top'
p19
g4
(g5
(I0
tp20
g7
tp21
Rp22
(I1
(I3
tp23
g14
I00
S'r;B#\xaaL\x07\xbf\xa7\xf6h\xd0>\xed*\xbf\xd3\x82\x06:\xb4\xd6\xe0?'
p24
tp25
bsS'average_total'
p26
g4
(g5
(I0
tp27
g7
tp28
Rp29
(I1
(I3
tp30
g14
I00
S"Y\x12n}\x9e1\x19?J'\xf3\x1d\xe5\xdd\x13?\xfd\x88\xfe<\x15\x81\xe7?"
p31
tp32
bsS'S_total'
p33
F9.08973930704648
s.