(dp0
S'S_top'
p1
F-4.332186684145303
sS'S_bottom'
p2
F14.279065876787454
sS'average_bottom'
p3
cnumpy.core.multiarray
_reconstruct
p4
(cnumpy
ndarray
p5
(I0
tp6
S'b'
p7
tp8
Rp9
(I1
(I3
tp10
cnumpy
dtype
p11
(S'f8'
p12
I0
I1
tp13
Rp14
(I3
S'<'
p15
NNNI-1
I-1
I0
tp16
bI00
S'-\xf9\xb3\xec\x174\x98\xbf\xa1Q\x95\xe4+}\x9c?\x8bkVu\xb6\xdc\xb3?'
p17
tp18
bsS'average_top'
p19
g4
(g5
(I0
tp20
g7
tp21
Rp22
(I1
(I3
tp23
g14
I00
S'\x8a\x92K\xe8\x1cG\x87\xbf\xbf\x02@\xe7\x8b\x9e\xa3?a\xa3\n\x99\xf4K\xa0\xbf'
p24
tp25
bsS'average_total'
p26
g4
(g5
(I0
tp27
g7
tp28
Rp29
(I1
(I3
tp30
g14
I00
S'b.R@\xec\x03\x94\xbf\x12QwX<\t\xa0?\xc6\x1ds\xaa\x00\r\xa5?'
p31
tp32
bsS'S_total'
p33
F9.946879192642152
s.