(dp0
S'S_top'
p1
F-4.308411124132973
sS'S_bottom'
p2
F14.324586658731901
sS'average_bottom'
p3
cnumpy.core.multiarray
_reconstruct
p4
(cnumpy
ndarray
p5
(I0
tp6
S'b'
p7
tp8
Rp9
(I1
(I3
tp10
cnumpy
dtype
p11
(S'f8'
p12
I0
I1
tp13
Rp14
(I3
S'<'
p15
NNNI-1
I-1
I0
tp16
bI00
S'1l`f\xb9?\x99\xbf7\x97+\xcc3\xcf\x9b?\xb1\x1f]\x81$x\xb3?'
p17
tp18
bsS'average_top'
p19
g4
(g5
(I0
tp20
g7
tp21
Rp22
(I1
(I3
tp23
g14
I00
S'R\xae9\xc0\xd3\xde\x89\xbf!\xd9\xab\xdcB\xac\xa3?\xb5R\xa1\xb8\xcer\xa1\xbf'
p24
tp25
bsS'average_total'
p26
g4
(g5
(I0
tp27
g7
tp28
Rp29
(I1
(I3
tp30
g14
I00
S'y\xaa\x19U\xf6$\x95\xbf\x7f3#w\xa2\xa7\x9f?^sS\x15\xa0$\xa4?'
p31
tp32
bsS'S_total'
p33
F10.016175534598906
s.