(dp0
S'S_top'
p1
F4.904182419593026
sS'S_bottom'
p2
F4.211769987382254
sS'average_bottom'
p3
cnumpy.core.multiarray
_reconstruct
p4
(cnumpy
ndarray
p5
(I0
tp6
S'b'
p7
tp8
Rp9
(I1
(I3
tp10
cnumpy
dtype
p11
(S'f8'
p12
I0
I1
tp13
Rp14
(I3
S'<'
p15
NNNI-1
I-1
I0
tp16
bI00
S'\xad\x80\xd6`$\xa4&?z\x02Q\x91\xd4\xe1-?[\xb8e!\xa5\xb0\xea?'
p17
tp18
bsS'average_top'
p19
g4
(g5
(I0
tp20
g7
tp21
Rp22
(I1
(I3
tp23
g14
I00
S'!\x1d\t]\x1e\x10\x04\xbf;\x02\x9dc\r\xa5+\xbfu\xbc\n\x10\xa1t\xe0?'
p24
tp25
bsS'average_total'
p26
g4
(g5
(I0
tp27
g7
tp28
Rp29
(I1
(I3
tp30
g14
I00
S'\xaf\xcb\xf9\xe84\xd8\x1a?Gp\xa7\xda\xd0i\x15?S\tT1PG\xe7?'
p31
tp32
bsS'S_total'
p33
F9.115952406975223
s.