(dp0
S'S_top'
p1
F-4.304708139706816
sS'S_bottom'
p2
F14.331565913443876
sS'average_bottom'
p3
cnumpy.core.multiarray
_reconstruct
p4
(cnumpy
ndarray
p5
(I0
tp6
S'b'
p7
tp8
Rp9
(I1
(I3
tp10
cnumpy
dtype
p11
(S'f8'
p12
I0
I1
tp13
Rp14
(I3
S'<'
p15
NNNI-1
I-1
I0
tp16
bI00
S'l\xeeM\x8f\xd1a\x99\xbfZ\x14Y2l\xb9\x9b?\x96*\xc8\x90Jj\xb3?'
p17
tp18
bsS'average_top'
p19
g4
(g5
(I0
tp20
g7
tp21
Rp22
(I1
(I3
tp23
g14
I00
S'\n\x19\xb72Y1\x8a\xbf\x94\xc6+?\xba\xae\xa3?\x9d2\xb7\xee\xd3\x92\xa1\xbf'
p24
tp25
bsS'average_total'
p26
g4
(g5
(I0
tp27
g7
tp28
Rp29
(I1
(I3
tp30
g14
I00
S'\xba\x9c=\x02rI\x95\xbf\xce-\xafM\xc2\x9a\x9f?\t\xb6B\xc3{\x07\xa4?'
p31
tp32
bsS'S_total'
p33
F10.026857773736888
s.