(dp0
S'S_top'
p1
F-4.279829951206422
sS'S_bottom'
p2
F14.376709225036505
sS'average_bottom'
p3
cnumpy.core.multiarray
_reconstruct
p4
(cnumpy
ndarray
p5
(I0
tp6
S'b'
p7
tp8
Rp9
(I1
(I3
tp10
cnumpy
dtype
p11
(S'f8'
p12
I0
I1
tp13
Rp14
(I3
S'<'
p15
NNNI-1
I-1
I0
tp16
bI00
S'\xc2k\xc82\x0c3\x9a\xbf%E\xea\x15\x15-\x9b?\xb6\xf6\xde?/\x12\xb3?'
p17
tp18
bsS'average_top'
p19
g4
(g5
(I0
tp20
g7
tp21
Rp22
(I1
(I3
tp23
g14
I00
S'O\nR\xe9\x17\x0b\x8c\xbf\xb4EH\xdc\xd5\xc7\xa3?\x9a\x08\n\x81x&\xa2\xbf'
p24
tp25
bsS'average_total'
p26
g4
(g5
(I0
tp27
g7
tp28
Rp29
(I1
(I3
tp30
g14
I00
S"<\x01\xee\x88\xe3#\x96\xbfp'1\xd8\xefM\x9f?F\x1f\xb7!\xcb`\xa3?"
p31
tp32
bsS'S_total'
p33
F10.096879273830309
s.