(dp0
S'S_top'
p1
F-4.27667562648281
sS'S_bottom'
p2
F14.382147250969853
sS'average_bottom'
p3
cnumpy.core.multiarray
_reconstruct
p4
(cnumpy
ndarray
p5
(I0
tp6
S'b'
p7
tp8
Rp9
(I1
(I3
tp10
cnumpy
dtype
p11
(S'f8'
p12
I0
I1
tp13
Rp14
(I3
S'<'
p15
NNNI-1
I-1
I0
tp16
bI00
S'\\\x91\xbf<\xcdL\x9a\xbfEo~\xaf>\x1a\x9b?L>g\xdaS\x07\xb3?'
p17
tp18
bsS'average_top'
p19
g4
(g5
(I0
tp20
g7
tp21
Rp22
(I1
(I3
tp23
g14
I00
S'\xb4\xf5\x88\xeb\x08@\x8c\xbf\xb2h\x95w\xcb\xcc\xa3?)P;"\xa91\xa2\xbf'
p24
tp25
bsS'average_total'
p26
g4
(g5
(I0
tp27
g7
tp28
Rp29
(I1
(I3
tp30
g14
I00
S'?\x86|\xba\xe1=\x96\xbf<\x82\xdbK\xafD\x9f?:\xa9\xe4b\x96N\xa3?'
p31
tp32
bsS'S_total'
p33
F10.105471624487118
s.