(dp0
S'S_top'
p1
F-4.270837799450221
sS'S_bottom'
p2
F14.391971420546112
sS'average_bottom'
p3
cnumpy.core.multiarray
_reconstruct
p4
(cnumpy
ndarray
p5
(I0
tp6
S'b'
p7
tp8
Rp9
(I1
(I3
tp10
cnumpy
dtype
p11
(S'f8'
p12
I0
I1
tp13
Rp14
(I3
S'<'
p15
NNNI-1
I-1
I0
tp16
bI00
S'f\x13\xf2\x99_}\x9a\xbf%G;8@\xf5\x9a?\xee9<\xf0D\xf3\xb2?'
p17
tp18
bsS'average_top'
p19
g4
(g5
(I0
tp20
g7
tp21
Rp22
(I1
(I3
tp23
g14
I00
S'~\x96\xb20\xdc\x9f\x8c\xbf\x12C\x19/\xca\xd7\xa3?\x9d\xbe>\xa5\xfbA\xa2\xbf'
p24
tp25
bsS'average_total'
p26
g4
(g5
(I0
tp27
g7
tp28
Rp29
(I1
(I3
tp30
g14
I00
S'-X\x97\xd9;n\x96\xbf9\xd0C\x17Z3\x9f?\xe1\n\xed\xfaf.\xa3?'
p31
tp32
bsS'S_total'
p33
F10.121133621096014
s.