(dp0
S'S_top'
p1
F-4.252449241132279
sS'S_bottom'
p2
F14.41799993051624
sS'average_bottom'
p3
cnumpy.core.multiarray
_reconstruct
p4
(cnumpy
ndarray
p5
(I0
tp6
S'b'
p7
tp8
Rp9
(I1
(I3
tp10
cnumpy
dtype
p11
(S'f8'
p12
I0
I1
tp13
Rp14
(I3
S'<'
p15
NNNI-1
I-1
I0
tp16
bI00
S'[]\x99\x9alO\x9b\xbf(\xa5,\x13\xb2:\x9a?[\xaa\xe2\x90}\xb3\xb2?'
p17
tp18
bsS'average_top'
p19
g4
(g5
(I0
tp20
g7
tp21
Rp22
(I1
(I3
tp23
g14
I00
S'Po\x97N\xfe\x03\x8e\xbf\tK\xd7\x0f\x95$\xa4?=\xc8\x94t\x7f?\xa2\xbf'
p24
tp25
bsS'average_total'
p26
g4
(g5
(I0
tp27
g7
tp28
Rp29
(I1
(I3
tp30
g14
I00
S'\x1bF&\x8f\x9f5\x97\xbf\x0f#\xd8\x04-\xea\x9e?\r\xf5l 1\xda\xa2?'
p31
tp32
bsS'S_total'
p33
F10.165550689383979
s.