(dp0
S'S_top'
p1
F-4.251964048276345
sS'S_bottom'
p2
F14.418097045245899
sS'average_bottom'
p3
cnumpy.core.multiarray
_reconstruct
p4
(cnumpy
ndarray
p5
(I0
tp6
S'b'
p7
tp8
Rp9
(I1
(I3
tp10
cnumpy
dtype
p11
(S'f8'
p12
I0
I1
tp13
Rp14
(I3
S'<'
p15
NNNI-1
I-1
I0
tp16
bI00
S'\x13n\xd0\xf9\x1d_\x9b\xbf\xe1\x7fn|@+\x9a?"m\xff\x9a\xc7\xb1\xb2?'
p17
tp18
bsS'average_top'
p19
g4
(g5
(I0
tp20
g7
tp21
Rp22
(I1
(I3
tp23
g14
I00
S'\xcf\x11\xe9\xa6Y\x1c\x8e\xbf=\t\x96\x00\xb9+\xa4?"l\xc1F);\xa2\xbf'
p24
tp25
bsS'average_total'
p26
g4
(g5
(I0
tp27
g7
tp28
Rp29
(I1
(I3
tp30
g14
I00
S'\x9f:\x9d\x08%D\x97\xbf!\xefl\xe6\xa3\xe4\x9e?H2\xdb;[\xd9\xa2?'
p31
tp32
bsS'S_total'
p33
F10.166132996969697
s.