(dp0
S'S_top'
p1
F-4.251783733371331
sS'S_bottom'
p2
F14.415381806515521
sS'average_bottom'
p3
cnumpy.core.multiarray
_reconstruct
p4
(cnumpy
ndarray
p5
(I0
tp6
S'b'
p7
tp8
Rp9
(I1
(I3
tp10
cnumpy
dtype
p11
(S'f8'
p12
I0
I1
tp13
Rp14
(I3
S'<'
p15
NNNI-1
I-1
I0
tp16
bI00
S'\xd8\xa3\xbe\xb5\x11\x9b\x9b\xbf\xe7\x89EL\x7f\xef\x99?1\xe1}\xa4$\xb1\xb2?'
p17
tp18
bsS'average_top'
p19
g4
(g5
(I0
tp20
g7
tp21
Rp22
(I1
(I3
tp23
g14
I00
S"\x98t|l${\x8e\xbf\x85\xe7E?\xf2E\xa4?\x7f\x85\xe1\xe3C'\xa2\xbf"
p24
tp25
bsS'average_total'
p26
g4
(g5
(I0
tp27
g7
tp28
Rp29
(I1
(I3
tp30
g14
I00
S'\xad\\\xa5S\xe9{\x97\xbfC\xd8=2I\xce\x9e?\xb8\xfc.\xbb#\xdf\xa2?'
p31
tp32
bsS'S_total'
p33
F10.163598073144026
s.