(dp0
S'S_top'
p1
F-4.254061378460785
sS'S_bottom'
p2
F14.408612906612822
sS'average_bottom'
p3
cnumpy.core.multiarray
_reconstruct
p4
(cnumpy
ndarray
p5
(I0
tp6
S'b'
p7
tp8
Rp9
(I1
(I3
tp10
cnumpy
dtype
p11
(S'f8'
p12
I0
I1
tp13
Rp14
(I3
S'<'
p15
NNNI-1
I-1
I0
tp16
bI00
S"\x90yZ\x1d\xaf\xd4\x9b\xbf`\x7f\xf2\xe7e\xb5\x99?\xd1k'\xa4#\xb9\xb2?"
p17
tp18
bsS'average_top'
p19
g4
(g5
(I0
tp20
g7
tp21
Rp22
(I1
(I3
tp23
g14
I00
S";{\x9f3L\xdc\x8e\xbf\xa6\xb6\x16\xf3yZ\xa4?\\'z\xaf\xa1\x10\xa2\xbf"
p24
tp25
bsS'average_total'
p26
g4
(g5
(I0
tp27
g7
tp28
Rp29
(I1
(I3
tp30
g14
I00
S'}\xaf\xc9\x90\x83\xb2\x97\xbf\xa1\x11DV=\xb5\x9e?,2\xbbuX\xf1\xa2?'
p31
tp32
bsS'S_total'
p33
F10.15455152815191
s.