(dp0
S'S_top'
p1
F4.969973698364919
sS'S_bottom'
p2
F4.1918490226992375
sS'average_bottom'
p3
cnumpy.core.multiarray
_reconstruct
p4
(cnumpy
ndarray
p5
(I0
tp6
S'b'
p7
tp8
Rp9
(I1
(I3
tp10
cnumpy
dtype
p11
(S'f8'
p12
I0
I1
tp13
Rp14
(I3
S'<'
p15
NNNI-1
I-1
I0
tp16
bI00
S"\xd4\x9c\xc7\xe7=u'?\xa4u\xd3\x9d\xfbC2?p\xa6'\xf4\x86\xe5\xe9?"
p17
tp18
bsS'average_top'
p19
g4
(g5
(I0
tp20
g7
tp21
Rp22
(I1
(I3
tp23
g14
I00
S'\xe8\xd1\x1c\t.\xaf\xeb\xbe#\x00oE\xd7\xdb.\xbf\x95\xcd_\xfa\xbbq\xde?'
p24
tp25
bsS'average_total'
p26
g4
(g5
(I0
tp27
g7
tp28
Rp29
(I1
(I3
tp30
g14
I00
S'\xa1=a>\xb9\x1f\x1e?u\x19\x1b2\xd1"\x1c?As\xd3\xca\xa5V\xe6?'
p31
tp32
bsS'S_total'
p33
F9.161822721064171
s.