(dp0
S'S_top'
p1
F-4.268143671994723
sS'S_bottom'
p2
F14.379927479530286
sS'average_bottom'
p3
cnumpy.core.multiarray
_reconstruct
p4
(cnumpy
ndarray
p5
(I0
tp6
S'b'
p7
tp8
Rp9
(I1
(I3
tp10
cnumpy
dtype
p11
(S'f8'
p12
I0
I1
tp13
Rp14
(I3
S'<'
p15
NNNI-1
I-1
I0
tp16
bI00
S'\r\xc36\xd8Qt\x9c\xbf\x90J\x8a[\xa5\x04\x99?\xce~H\xbbs\xea\xb2?'
p17
tp18
bsS'average_top'
p19
g4
(g5
(I0
tp20
g7
tp21
Rp22
(I1
(I3
tp23
g14
I00
S'b)\xe14\xfb\x0b\x90\xbf\x85\xc7\xaa\xdeHi\xa4?(]4H\xb3\xc5\xa1\xbf'
p24
tp25
bsS'average_total'
p26
g4
(g5
(I0
tp27
g7
tp28
Rp29
(I1
(I3
tp30
g14
I00
S'^\xaf\x06l\x8cQ\x98\xbf\xfb\xb7\xba\xc7FI\x9e?\xa8\xa3\x0c\xbb\x12L\xa3?'
p31
tp32
bsS'S_total'
p33
F10.111783807535476
s.