(dp0
S'S_top'
p1
F4.9584004774827015
sS'S_bottom'
p2
F4.192485240779814
sS'average_bottom'
p3
cnumpy.core.multiarray
_reconstruct
p4
(cnumpy
ndarray
p5
(I0
tp6
S'b'
p7
tp8
Rp9
(I1
(I3
tp10
cnumpy
dtype
p11
(S'f8'
p12
I0
I1
tp13
Rp14
(I3
S'<'
p15
NNNI-1
I-1
I0
tp16
bI00
S"\x16\xf3\xfa\x0f\xbc\x03'?<\x8a\xaedy\x073?U!:\x88\n\xa4\xe9?"
p17
tp18
bsS'average_top'
p19
g4
(g5
(I0
tp20
g7
tp21
Rp22
(I1
(I3
tp23
g14
I00
S'4F\xbfi.\xb4\xe2\xbe\x0e\xf5\xae\x0cHH/\xbf\xb3W\xc8v\xbf\xfe\xdd?'
p24
tp25
bsS'average_total'
p26
g4
(g5
(I0
tp27
g7
tp28
Rp29
(I1
(I3
tp30
g14
I00
S'\xdb\xec\x96\xc2+\xe8\x1d?\x80R)\x15\xd6\xe3\x1d?+\x05\x93k\xd3\x17\xe6?'
p31
tp32
bsS'S_total'
p33
F9.150885718262423
s.