(dp0
S'S_top'
p1
F-4.282638188245223
sS'S_bottom'
p2
F14.355572912858648
sS'average_bottom'
p3
cnumpy.core.multiarray
_reconstruct
p4
(cnumpy
ndarray
p5
(I0
tp6
S'b'
p7
tp8
Rp9
(I1
(I3
tp10
cnumpy
dtype
p11
(S'f8'
p12
I0
I1
tp13
Rp14
(I3
S'<'
p15
NNNI-1
I-1
I0
tp16
bI00
S'\x87/t23\x0f\x9d\xbf\x90q\x9b\xee\x8d\x0b\x98?\xc2(6\xafV$\xb3?'
p17
tp18
bsS'average_top'
p19
g4
(g5
(I0
tp20
g7
tp21
Rp22
(I1
(I3
tp23
g14
I00
S'\x0bRc\xf9k\xd0\x90\xbfx,\x9e\xd7\x1d8\xa4?\xdd\x1b\x89\xc4\x14k\xa1\xbf'
p24
tp25
bsS'average_total'
p26
g4
(g5
(I0
tp27
g7
tp28
Rp29
(I1
(I3
tp30
g14
I00
S'\xc1\xe2\xe87H\xfa\x98\xbf\xc3\xfa\xf0\xb5o\x82\x9d?-L{0v\xb7\xa3?'
p31
tp32
bsS'S_total'
p33
F10.072934724613209
s.