(dp0
S'S_top'
p1
F-4.287722971965412
sS'S_bottom'
p2
F14.347948643702063
sS'average_bottom'
p3
cnumpy.core.multiarray
_reconstruct
p4
(cnumpy
ndarray
p5
(I0
tp6
S'b'
p7
tp8
Rp9
(I1
(I3
tp10
cnumpy
dtype
p11
(S'f8'
p12
I0
I1
tp13
Rp14
(I3
S'<'
p15
NNNI-1
I-1
I0
tp16
bI00
S'%\xab[\xe5\xcen\x9d\xbfe\xe5E{\x0b\xff\x96?/\x029\xa7\x1eH\xb3?'
p17
tp18
bsS'average_top'
p19
g4
(g5
(I0
tp20
g7
tp21
Rp22
(I1
(I3
tp23
g14
I00
S' !\xf7\x99\\\x81\x91\xbf*8\xfbK8\xe7\xa3?c\xd5C\xff\n)\xa1\xbf'
p24
tp25
bsS'average_total'
p26
g4
(g5
(I0
tp27
g7
tp28
Rp29
(I1
(I3
tp30
g14
I00
S':\x92\x1e,\x00u\x99\xbf0H]\xa4\x7f\x99\x9c?I\x8a\xdd\xbd.\xfd\xa3?'
p31
tp32
bsS'S_total'
p33
F10.060225671736744
s.