(dp0
S'S_top'
p1
F-4.28785886196606
sS'S_bottom'
p2
F14.347798879997667
sS'average_bottom'
p3
cnumpy.core.multiarray
_reconstruct
p4
(cnumpy
ndarray
p5
(I0
tp6
S'b'
p7
tp8
Rp9
(I1
(I3
tp10
cnumpy
dtype
p11
(S'f8'
p12
I0
I1
tp13
Rp14
(I3
S'<'
p15
NNNI-1
I-1
I0
tp16
bI00
S'\x18\xa5\xb9<\x81v\x9d\xbf\xd2\x85?\xf6w\xde\x96?\x1b#/\x9b K\xb3?'
p17
tp18
bsS'average_top'
p19
g4
(g5
(I0
tp20
g7
tp21
Rp22
(I1
(I3
tp23
g14
I00
S"d\xa4\xe9p\x14\x95\x91\xbf:-7\x90M\xdc\xa3?R'\x96\xdc'#\xa1\xbf"
p24
tp25
bsS'average_total'
p26
g4
(g5
(I0
tp27
g7
tp28
Rp29
(I1
(I3
tp30
g14
I00
S"Sb\x9fV\xb4\x80\x99\xbf\xec]\xaa\xcc\x80|\x9c?\x1c6e\xb9'\x03\xa4?"
p31
tp32
bsS'S_total'
p33
F10.05994001803158
s.