(dp0
S'S_top'
p1
F4.892920384727869
sS'S_bottom'
p2
F4.19589059272159
sS'average_bottom'
p3
cnumpy.core.multiarray
_reconstruct
p4
(cnumpy
ndarray
p5
(I0
tp6
S'b'
p7
tp8
Rp9
(I1
(I3
tp10
cnumpy
dtype
p11
(S'f8'
p12
I0
I1
tp13
Rp14
(I3
S'<'
p15
NNNI-1
I-1
I0
tp16
bI00
S'\xbd\xac2z\x92\xa4%?\xc6\x19\xb6\x1c\x19H4?\xc4\xe6,;\xb5\r\xe9?'
p17
tp18
bsS'average_top'
p19
g4
(g5
(I0
tp20
g7
tp21
Rp22
(I1
(I3
tp23
g14
I00
S'\xb1\xb1\xc1T\x8c\xc3\xdc\xbe\xfc6\xc3\x7f]\xd0.\xbf|\xd7\xa6\x84\xc8P\xdd?'
p24
tp25
bsS'average_total'
p26
g4
(g5
(I0
tp27
g7
tp28
Rp29
(I1
(I3
tp30
g14
I00
S'\x04]\xa8m\rB\x1c?\xb1\xcez\xddc\xc5 ?\xd5x\x02\x05\x9c\x96\xe5?'
p31
tp32
bsS'S_total'
p33
F9.088810977449494
s.