(dp0
S'S_top'
p1
F-4.286308027148407
sS'S_bottom'
p2
F14.351030428287595
sS'average_bottom'
p3
cnumpy.core.multiarray
_reconstruct
p4
(cnumpy
ndarray
p5
(I0
tp6
S'b'
p7
tp8
Rp9
(I1
(I3
tp10
cnumpy
dtype
p11
(S'f8'
p12
I0
I1
tp13
Rp14
(I3
S'<'
p15
NNNI-1
I-1
I0
tp16
bI00
S'\x9bf\x0bX\xa8\x9a\x9d\xbf\x90\x16\x8e9p\xad\x95?\x9a\xe0+\xa5\xcd\\\xb3?'
p17
tp18
bsS'average_top'
p19
g4
(g5
(I0
tp20
g7
tp21
Rp22
(I1
(I3
tp23
g14
I00
S'>5\x97W\x04=\x92\xbf\xd1\x8c\xcbQ6l\xa3?coC_"\x00\xa1\xbf'
p24
tp25
bsS'average_total'
p26
g4
(g5
(I0
tp27
g7
tp28
Rp29
(I1
(I3
tp30
g14
I00
S'\xb0\x1d\x82\xf4\xc8\xd0\x99\xbf\xb0\x95k\x17lf\x9b?\x99\x945\x9be&\xa4?'
p31
tp32
bsS'S_total'
p33
F10.064722401139079
s.