(dp0
S'S_top'
p1
F-4.282913484153197
sS'S_bottom'
p2
F14.357637398699016
sS'average_bottom'
p3
cnumpy.core.multiarray
_reconstruct
p4
(cnumpy
ndarray
p5
(I0
tp6
S'b'
p7
tp8
Rp9
(I1
(I3
tp10
cnumpy
dtype
p11
(S'f8'
p12
I0
I1
tp13
Rp14
(I3
S'<'
p15
NNNI-1
I-1
I0
tp16
bI00
S"\xb2/\xa27\xd1\x84\x9d\xbf\xb9E\xf8\xc5'\xa0\x94?\xceY\x7f\xd6\x15_\xb3?"
p17
tp18
bsS'average_top'
p19
g4
(g5
(I0
tp20
g7
tp21
Rp22
(I1
(I3
tp23
g14
I00
S'w2\xb5\x87\xef\xb3\x92\xbf\xa7\xc1\xad\x90\xfd\xfa\xa2?>h\xb0/u\xfc\xa0\xbf'
p24
tp25
bsS'average_total'
p26
g4
(g5
(I0
tp27
g7
tp28
Rp29
(I1
(I3
tp30
g14
I00
S'-&/,\xdd\xe9\x99\xbf\xcd\xa8IBkg\x9a?|\x1aRB\xaa*\xa4?'
p31
tp32
bsS'S_total'
p33
F10.074723914545714
s.