(dp0
S'S_top'
p1
F4.764015279445162
sS'S_bottom'
p2
F4.196734029475314
sS'average_bottom'
p3
cnumpy.core.multiarray
_reconstruct
p4
(cnumpy
ndarray
p5
(I0
tp6
S'b'
p7
tp8
Rp9
(I1
(I3
tp10
cnumpy
dtype
p11
(S'f8'
p12
I0
I1
tp13
Rp14
(I3
S'<'
p15
NNNI-1
I-1
I0
tp16
bI00
S'\xc5\x95L\x9c\xcc8$? \x93s\xceJ\x065?\xe2g\xab\x8f\xc5\\\xe8?'
p17
tp18
bsS'average_top'
p19
g4
(g5
(I0
tp20
g7
tp21
Rp22
(I1
(I3
tp23
g14
I00
S'\x96\x9b\xdb\xcc\xa9c\xf1\xbe\xa9\xa8AV\xe2f+\xbfWt}hX\xee\xdc?'
p24
tp25
bsS'average_total'
p26
g4
(g5
(I0
tp27
g7
tp28
Rp29
(I1
(I3
tp30
g14
I00
S'\x81\xa2\x02\xfft\x83\x19?\x9a\xfb\x94.$\xe6"?mwt\xcd>\x10\xe5?'
p31
tp32
bsS'S_total'
p33
F8.960749308920487
s.