(dp0
S'S_top'
p1
F0.7406490531678241
sS'S_bottom'
p2
F1.8761256275203477
sS'average_bottom'
p3
cnumpy.core.multiarray
_reconstruct
p4
(cnumpy
ndarray
p5
(I0
tp6
S'b'
p7
tp8
Rp9
(I1
(I3
tp10
cnumpy
dtype
p11
(S'f8'
p12
I0
I1
tp13
Rp14
(I3
S'<'
p15
NNNI-1
I-1
I0
tp16
bI00
S'Z\xa9L\xbfI\xca\xf0>&\xc7\x8b\xbd\xa5D\xfa\xbe\x06\x1e\x7f%\xe8N\xef?'
p17
tp18
bsS'average_top'
p19
g4
(g5
(I0
tp20
g7
tp21
Rp22
(I1
(I3
tp23
g14
I00
S'\x93\xd5\x82iX>\xfd\xbe\x85\xb5\x14\x08/g\x0b?c&\x01\x17\x9ez\xef?'
p24
tp25
bsS'average_total'
p26
g4
(g5
(I0
tp27
g7
tp28
Rp29
(I1
(I3
tp30
g14
I00
S"\xab\x19\xcd'\xb9!\xb7>t\x8d\xb5\x8c_4\xa8>\x9eq/\x19z]\xef?"
p31
tp32
bsS'S_total'
p33
F2.616774680688141
s.