(dp0
S'S_top'
p1
F4.673081699081488
sS'S_bottom'
p2
F4.194458031186557
sS'average_bottom'
p3
cnumpy.core.multiarray
_reconstruct
p4
(cnumpy
ndarray
p5
(I0
tp6
S'b'
p7
tp8
Rp9
(I1
(I3
tp10
cnumpy
dtype
p11
(S'f8'
p12
I0
I1
tp13
Rp14
(I3
S'<'
p15
NNNI-1
I-1
I0
tp16
bI00
S'\xdf\x14q\x1b\xcd\xcf#?[\xe7\xe0\x98\xe1*5?\xa0\xd7}\xdbN\xfa\xe7?'
p17
tp18
bsS'average_top'
p19
g4
(g5
(I0
tp20
g7
tp21
Rp22
(I1
(I3
tp23
g14
I00
S'q^qM\x0e\xfc\xfb\xbe"4F\x8b\x06\xf5\'\xbfR\x84v\x13\xc7\xd8\xdc?'
p24
tp25
bsS'average_total'
p26
g4
(g5
(I0
tp27
g7
tp28
Rp29
(I1
(I3
tp30
g14
I00
S'g=\x98\x98m\x15\x18?\xae\xa8j\xa0\xe0<$?\x17?~\r\x02\xcb\xe4?'
p31
tp32
bsS'S_total'
p33
F8.867539730268081
s.