(dp0
S'S_top'
p1
F-4.278070284784807
sS'S_bottom'
p2
F14.37012820552548
sS'average_bottom'
p3
cnumpy.core.multiarray
_reconstruct
p4
(cnumpy
ndarray
p5
(I0
tp6
S'b'
p7
tp8
Rp9
(I1
(I3
tp10
cnumpy
dtype
p11
(S'f8'
p12
I0
I1
tp13
Rp14
(I3
S'<'
p15
NNNI-1
I-1
I0
tp16
bI00
S'\t\xd9\xf7[\nx\x9c\xbf\x81\xf9\xafJ\x7fx\x92?IwD\x950@\xb3?'
p17
tp18
bsS'average_top'
p19
g4
(g5
(I0
tp20
g7
tp21
Rp22
(I1
(I3
tp23
g14
I00
S';\xe1\xac(\x1e\x07\x93\xbf\x94\xdfi\x11\xc2\xe9\xa1?\x91\x92l.\xd19\xa1\xbf'
p24
tp25
bsS'average_total'
p26
g4
(g5
(I0
tp27
g7
tp28
Rp29
(I1
(I3
tp30
g14
I00
S'\xc0\x15\x7f\xe8gR\x99\xbf\xe5X\xb3\xef}A\x98?P\x9f\\\x96\x04\xed\xa3?'
p31
tp32
bsS'S_total'
p33
F10.092057920740709
s.