(dp0
S'S_top'
p1
F4.562070777998369
sS'S_bottom'
p2
F4.189783472802118
sS'average_bottom'
p3
cnumpy.core.multiarray
_reconstruct
p4
(cnumpy
ndarray
p5
(I0
tp6
S'b'
p7
tp8
Rp9
(I1
(I3
tp10
cnumpy
dtype
p11
(S'f8'
p12
I0
I1
tp13
Rp14
(I3
S'<'
p15
NNNI-1
I-1
I0
tp16
bI00
S'3a\x04\x01\xdc\xd7#?\x83p\x19\xfb4&5?;\xd71*S\x91\xe7?'
p17
tp18
bsS'average_top'
p19
g4
(g5
(I0
tp20
g7
tp21
Rp22
(I1
(I3
tp23
g14
I00
S'U)\x03\xa6Ld\x05\xbf\xe10\x8eUo\xdd"\xbfj\x81\xa7|\xcc\xd4\xdc?'
p24
tp25
bsS'average_total'
p26
g4
(g5
(I0
tp27
g7
tp28
Rp29
(I1
(I3
tp30
g14
I00
S'\x8f\xc6\xfe\x84v\xe4\x16?\xf4\xf5A\xff+\xe9%?tw3\x17[\x84\xe4?'
p31
tp32
bsS'S_total'
p33
F8.751854250800488
s.