(dp0
S'S_top'
p1
F4.42734286723869
sS'S_bottom'
p2
F4.182468002402071
sS'average_bottom'
p3
cnumpy.core.multiarray
_reconstruct
p4
(cnumpy
ndarray
p5
(I0
tp6
S'b'
p7
tp8
Rp9
(I1
(I3
tp10
cnumpy
dtype
p11
(S'f8'
p12
I0
I1
tp13
Rp14
(I3
S'<'
p15
NNNI-1
I-1
I0
tp16
bI00
S'\xb16\xb9\xc6X\x8f$?\xe2\x89\x00\xfe^\xf94?\xe6\x1fdJ\x06"\xe7?'
p17
tp18
bsS'average_top'
p19
g4
(g5
(I0
tp20
g7
tp21
Rp22
(I1
(I3
tp23
g14
I00
S'\xf5\x81\xd9\xf7\xf7O\x0f\xbf\xb3\xc0:\r.P\x17\xbf\xfd\x0cV0\x86\xe1\xdc?'
p24
tp25
bsS'average_total'
p26
g4
(g5
(I0
tp27
g7
tp28
Rp29
(I1
(I3
tp30
g14
I00
S"[\t\xc0\xc1\xd61\x16?\x16\x02\x9f'\x80\x14(?\xd7\xcay\xb6F<\xe4?"
p31
tp32
bsS'S_total'
p33
F8.609810869640778
s.