(dp0
S'S_top'
p1
F4.262214193170411
sS'S_bottom'
p2
F4.1723685608921715
sS'average_bottom'
p3
cnumpy.core.multiarray
_reconstruct
p4
(cnumpy
ndarray
p5
(I0
tp6
S'b'
p7
tp8
Rp9
(I1
(I3
tp10
cnumpy
dtype
p11
(S'f8'
p12
I0
I1
tp13
Rp14
(I3
S'<'
p15
NNNI-1
I-1
I0
tp16
bI00
S'\xd2\x91Ym\x90E&?]\xbf\xbaaA\xa94?V\x11\xfc\xa2\xae\xac\xe6?'
p17
tp18
bsS'average_top'
p19
g4
(g5
(I0
tp20
g7
tp21
Rp22
(I1
(I3
tp23
g14
I00
S'}r\xde\x9aKI\x16\xbf\xc0\x9eS\xbf\x03\xf1\xec\xbe\xe3\xdf\xde\x9f\xe7\xfd\xdc?'
p24
tp25
bsS'average_total'
p26
g4
(g5
(I0
tp27
g7
tp28
Rp29
(I1
(I3
tp30
g14
I00
S'Y\x1b\xbcx]D\x16?\x1bE\xf2\xcf\x03\xf2*?}\x9fH\x18\xc7\xf2\xe3?'
p31
tp32
bsS'S_total'
p33
F8.434582754062472
s.