(dp0
S'S_top'
p1
F4.0542571772161455
sS'S_bottom'
p2
F4.159350043149743
sS'average_bottom'
p3
cnumpy.core.multiarray
_reconstruct
p4
(cnumpy
ndarray
p5
(I0
tp6
S'b'
p7
tp8
Rp9
(I1
(I3
tp10
cnumpy
dtype
p11
(S'f8'
p12
I0
I1
tp13
Rp14
(I3
S'<'
p15
NNNI-1
I-1
I0
tp16
bI00
S'\x16\xf5\xc6\x9ao])?\xc6\x8a\xd3\x82\xfa@4?\xe9\x10\x9e\xec\xa31\xe6?'
p17
tp18
bsS'average_top'
p19
g4
(g5
(I0
tp20
g7
tp21
Rp22
(I1
(I3
tp23
g14
I00
S'\x1d\x18g\xab\xa7V\x1f\xbf\x8c\x8a-\x9cWZ\x16?R\x97u\x91\xc1(\xdd?'
p24
tp25
bsS'average_total'
p26
g4
(g5
(I0
tp27
g7
tp28
Rp29
(I1
(I3
tp30
g14
I00
S'\x83\x00kK\xc0_\x17?/\xba\x7fM\x0c\xbb.?\xad\x1d?.\xe4\xa7\xe3?'
p31
tp32
bsS'S_total'
p33
F8.213607220365809
s.