(dp0
S'S_top'
p1
F3.778949473400256
sS'S_bottom'
p2
F4.14319845641439
sS'average_bottom'
p3
cnumpy.core.multiarray
_reconstruct
p4
(cnumpy
ndarray
p5
(I0
tp6
S'b'
p7
tp8
Rp9
(I1
(I3
tp10
cnumpy
dtype
p11
(S'f8'
p12
I0
I1
tp13
Rp14
(I3
S'<'
p15
NNNI-1
I-1
I0
tp16
bI00
S'\x89\x90\xaaK\xbaO.?o\xc0\x05\x9d\xc1\xd53?jN\xcd%N\xb1\xe5?'
p17
tp18
bsS'average_top'
p19
g4
(g5
(I0
tp20
g7
tp21
Rp22
(I1
(I3
tp23
g14
I00
S'\x95\xfc\xc9\xd4\x86\x13&\xbf\x8b+0M\xb7\x9b+?\xee\xb7\x8c\x9b\xc1`\xdd?'
p24
tp25
bsS'average_total'
p26
g4
(g5
(I0
tp27
g7
tp28
Rp29
(I1
(I3
tp30
g14
I00
S'\x8f\xc1\x07p\xb0\xb2\x19?\xc5\x87n\xa8 \xd31? \x92\xf6\xe5\xaa[\xe3?'
p31
tp32
bsS'S_total'
p33
F7.922147929814603
s.