(dp0
S'S_top'
p1
F3.380351744054237
sS'S_bottom'
p2
F4.123565758861519
sS'average_bottom'
p3
cnumpy.core.multiarray
_reconstruct
p4
(cnumpy
ndarray
p5
(I0
tp6
S'b'
p7
tp8
Rp9
(I1
(I3
tp10
cnumpy
dtype
p11
(S'f8'
p12
I0
I1
tp13
Rp14
(I3
S'<'
p15
NNNI-1
I-1
I0
tp16
bI00
S'A\x0c\xddR!\xd62?\x82\xe1I\xdd?\x8d3?\xc7\xfcZ\n%,\xe5?'
p17
tp18
bsS'average_top'
p19
g4
(g5
(I0
tp20
g7
tp21
Rp22
(I1
(I3
tp23
g14
I00
S'\r\x0e\x0b1\xaf\x90/\xbf\xf9\xdac\xc8\x16\x9c7?\xc1\xebxL^\xa4\xdd?'
p24
tp25
bsS'average_total'
p26
g4
(g5
(I0
tp27
g7
tp28
Rp29
(I1
(I3
tp30
g14
I00
S'\xc7\xc5h\xc4\xfb/\x1d?\x17m4\xcf\x86\xe74?\x94\xb8>\x7f)\x0e\xe3?'
p31
tp32
bsS'S_total'
p33
F7.503917502915736
s.