(dp0
S'S_top'
p1
F2.7002384764398832
sS'S_bottom'
p2
F4.099966027884541
sS'average_bottom'
p3
cnumpy.core.multiarray
_reconstruct
p4
(cnumpy
ndarray
p5
(I0
tp6
S'b'
p7
tp8
Rp9
(I1
(I3
tp10
cnumpy
dtype
p11
(S'f8'
p12
I0
I1
tp13
Rp14
(I3
S'<'
p15
NNNI-1
I-1
I0
tp16
bI00
S'+\xa3\xc2\xc7B\x0c8?7N\x04r`\xa73?\x0bY,\x05\xb0\xa2\xe4?'
p17
tp18
bsS'average_top'
p19
g4
(g5
(I0
tp20
g7
tp21
Rp22
(I1
(I3
tp23
g14
I00
S'\xc8:\x86\x0b\xdd\x1d7\xbf\x89\xb9(O\xbf\x04A?\x9e\x8b\xaa\\\x88\xf1\xdd?'
p24
tp25
bsS'average_total'
p26
g4
(g5
(I0
tp27
g7
tp28
Rp29
(I1
(I3
tp30
g14
I00
S"\xaf4U'+\xa7 ?\x97\x1a\xf8_\xbdr8?\xdd\xbe\\`b\xbf\xe2?"
p31
tp32
bsS'S_total'
p33
F6.80020450432446
s.