(dp0
S'S_top'
p1
F1.4637603838252062
sS'S_bottom'
p2
F4.071930537523623
sS'average_bottom'
p3
cnumpy.core.multiarray
_reconstruct
p4
(cnumpy
ndarray
p5
(I0
tp6
S'b'
p7
tp8
Rp9
(I1
(I3
tp10
cnumpy
dtype
p11
(S'f8'
p12
I0
I1
tp13
Rp14
(I3
S'<'
p15
NNNI-1
I-1
I0
tp16
bI00
S"\xe6\xea]U)'??\xf8R\xbb\x94\x1b\x934?I!u\xd3\x8a\x15\xe4?"
p17
tp18
bsS'average_top'
p19
g4
(g5
(I0
tp20
g7
tp21
Rp22
(I1
(I3
tp23
g14
I00
S"4m\x8f\x92\xb9\xa6@\xbf\xb5\xaf\x02*\x91sE?\xe8\xe6'\x9c\xd2D\xde?"
p24
tp25
bsS'average_total'
p26
g4
(g5
(I0
tp27
g7
tp28
Rp29
(I1
(I3
tp30
g14
I00
S'\xb7\xb3\xd1h\x00V#?\x83+\x9aWo\x04<?_\x91\x84*+o\xe2?'
p31
tp32
bsS'S_total'
p33
F5.535690921348833
s.