(dp0
S'S_top'
p1
F0.348814082233339
sS'S_bottom'
p2
F4.039378807338636
sS'average_bottom'
p3
cnumpy.core.multiarray
_reconstruct
p4
(cnumpy
ndarray
p5
(I0
tp6
S'b'
p7
tp8
Rp9
(I1
(I3
tp10
cnumpy
dtype
p11
(S'f8'
p12
I0
I1
tp13
Rp14
(I3
S'<'
p15
NNNI-1
I-1
I0
tp16
bI00
S'\x82c\x11\xfa\xc0/D?\r\x04\xdc\xfd~<7?\xde\xe8\xbc\xe1r\x85\xe3?'
p17
tp18
bsS'average_top'
p19
g4
(g5
(I0
tp20
g7
tp21
Rp22
(I1
(I3
tp23
g14
I00
S'}\xee\x07elpF\xbf*\x1dK\xb7\xb5\\J?\x9d-\xe7\xe5L\x9b\xde?'
p24
tp25
bsS'average_total'
p26
g4
(g5
(I0
tp27
g7
tp28
Rp29
(I1
(I3
tp30
g14
I00
S"\x10\x16\x11B\x8f\xe9'?\x85n\x19ad\x88@?6\xb7\xef\xca\x84\x1d\xe2?"
p31
tp32
bsS'S_total'
p33
F4.388192889571986
s.