(dp0
S'S_top'
p1
F-0.47642368978122734
sS'S_bottom'
p2
F4.000901444396353
sS'average_bottom'
p3
cnumpy.core.multiarray
_reconstruct
p4
(cnumpy
ndarray
p5
(I0
tp6
S'b'
p7
tp8
Rp9
(I1
(I3
tp10
cnumpy
dtype
p11
(S'f8'
p12
I0
I1
tp13
Rp14
(I3
S'<'
p15
NNNI-1
I-1
I0
tp16
bI00
S'9US\xa21:I?\x85\xab\xa7\rE\xe6<?Q\x0cf`O\xf3\xe2?'
p17
tp18
bsS'average_top'
p19
g4
(g5
(I0
tp20
g7
tp21
Rp22
(I1
(I3
tp23
g14
I00
S'0\xad$~1\xf9K\xbf\x0bMC\xd5e\xbaO?M}\x04\xf0\xfb\xf3\xde?'
p24
tp25
bsS'average_total'
p26
g4
(g5
(I0
tp27
g7
tp28
Rp29
(I1
(I3
tp30
g14
I00
S'g|}\x1e\xbc\xf9-?JN\xa7V\x8b5D?\xd2\xd8v\x80\xdf\xca\xe1?'
p31
tp32
bsS'S_total'
p33
F3.524477754615145
s.