(dp0
S'S_top'
p1
F-1.8055743297185576
sS'S_bottom'
p2
F3.88670495123438
sS'average_bottom'
p3
cnumpy.core.multiarray
_reconstruct
p4
(cnumpy
ndarray
p5
(I0
tp6
S'b'
p7
tp8
Rp9
(I1
(I3
tp10
cnumpy
dtype
p11
(S'f8'
p12
I0
I1
tp13
Rp14
(I3
S'<'
p15
NNNI-1
I-1
I0
tp16
bI00
S'\xf4\x98B#\x96\x00P?\x0f\xbaI\xfa\xfeRH?&l\xde\xff]\xcb\xe1?'
p17
tp18
bsS'average_top'
p19
g4
(g5
(I0
tp20
g7
tp21
Rp22
(I1
(I3
tp23
g14
I00
S"\xff|\xcd\xcbE'O\xbf]\xdaq\x8c\x9b\x8fR?\x01\n\x14\x9a\xeb\xa6\xdf?"
p24
tp25
bsS'average_total'
p26
g4
(g5
(I0
tp27
g7
tp28
Rp29
(I1
(I3
tp30
g14
I00
S'\xf4\xd75tw\xe75?\x06\xb4x~\x0f\x97L?\xe2\xb6)Ef#\xe1?'
p31
tp32
bsS'S_total'
p33
F2.0811306215157837
s.