(dp0
S'S_top'
p1
F-2.1445924140662727
sS'S_bottom'
p2
F3.815130633518889
sS'average_bottom'
p3
cnumpy.core.multiarray
_reconstruct
p4
(cnumpy
ndarray
p5
(I0
tp6
S'b'
p7
tp8
Rp9
(I1
(I3
tp10
cnumpy
dtype
p11
(S'f8'
p12
I0
I1
tp13
Rp14
(I3
S'<'
p15
NNNI-1
I-1
I0
tp16
bI00
S'\xab\x81\xb6p\xf0\xa5P?\x83\x1e\xac\x1f\x94\xd3M?\xb1\x0ep\x8c\x017\xe1?'
p17
tp18
bsS'average_top'
p19
g4
(g5
(I0
tp20
g7
tp21
Rp22
(I1
(I3
tp23
g14
I00
S'UsJ\x9a\xc8\xbeM\xbf\xb4Kz\xe4\xd53S?\xa2\x1d\x14\x96\x89\xff\xdf?'
p24
tp25
bsS'average_total'
p26
g4
(g5
(I0
tp27
g7
tp28
Rp29
(I1
(I3
tp30
g14
I00
S'\xdc\xec\xe5\xae\xbb\x908?YqwE\xcdWP?2\xbb\x91\xd6B\xcf\xe0?'
p31
tp32
bsS'S_total'
p33
F1.670538219452594
s.