(dp0
S'S_top'
p1
F-2.2986340404845125
sS'S_bottom'
p2
F3.7429972883782474
sS'average_bottom'
p3
cnumpy.core.multiarray
_reconstruct
p4
(cnumpy
ndarray
p5
(I0
tp6
S'b'
p7
tp8
Rp9
(I1
(I3
tp10
cnumpy
dtype
p11
(S'f8'
p12
I0
I1
tp13
Rp14
(I3
S'<'
p15
NNNI-1
I-1
I0
tp16
bI00
S'\x85\x83\xb3}\xab\xe4P?c%Z\xd7\xf3bQ?\xa2[L\xa0\x13\xa4\xe0?'
p17
tp18
bsS'average_top'
p19
g4
(g5
(I0
tp20
g7
tp21
Rp22
(I1
(I3
tp23
g14
I00
S'\x1e\xa1\xa7\xdd\xe3\x03L\xbf\x0b9\x98 \x1e$T?\x8dL\x1d\x96j*\xe0?'
p24
tp25
bsS'average_total'
p26
g4
(g5
(I0
tp27
g7
tp28
Rp29
(I1
(I3
tp30
g14
I00
S'D\x00O\x8dF_:?G\x0e\x16w\x01NR?\xee\xc0\x0e\x07\x86{\xe0?'
p31
tp32
bsS'S_total'
p33
F1.444363247893736
s.