(dp0
S'S_top'
p1
F-2.463708757589791
sS'S_bottom'
p2
F3.592974742670446
sS'average_bottom'
p3
cnumpy.core.multiarray
_reconstruct
p4
(cnumpy
ndarray
p5
(I0
tp6
S'b'
p7
tp8
Rp9
(I1
(I3
tp10
cnumpy
dtype
p11
(S'f8'
p12
I0
I1
tp13
Rp14
(I3
S'<'
p15
NNNI-1
I-1
I0
tp16
bI00
S'\x92\x03 FH\xbdP?F\xc9\x99K\x85aU?\x86\xf6\x1f\xe0\xfc\x11\xdf?'
p17
tp18
bsS'average_top'
p19
g4
(g5
(I0
tp20
g7
tp21
Rp22
(I1
(I3
tp23
g14
I00
S"\xa2\x95\x00\xbb:!H\xbf\xadL\xf4'\xb3\xe1V?\xf0\xeb\xe5)\xd5r\xe0?"
p24
tp25
bsS'average_total'
p26
g4
(g5
(I0
tp27
g7
tp28
Rp29
(I1
(I3
tp30
g14
I00
S'\xd5c!\xf6W\x8d<?0\xf3MS\x94\xe1U?\xddj\xfa\x0b\xe1\xad\xdf?'
p31
tp32
bsS'S_total'
p33
F1.1292659850806526
s.