(dp0
S'S_top'
p1
F-2.54371688432286
sS'S_bottom'
p2
F3.5020869082934176
sS'average_bottom'
p3
cnumpy.core.multiarray
_reconstruct
p4
(cnumpy
ndarray
p5
(I0
tp6
S'b'
p7
tp8
Rp9
(I1
(I3
tp10
cnumpy
dtype
p11
(S'f8'
p12
I0
I1
tp13
Rp14
(I3
S'<'
p15
NNNI-1
I-1
I0
tp16
bI00
S'\x06\xca\x0f\xfe\xd8|P?\x85\xe6\xbdu&\x0eW?\xf5\xf3b\xa18\x08\xde?'
p17
tp18
bsS'average_top'
p19
g4
(g5
(I0
tp20
g7
tp21
Rp22
(I1
(I3
tp23
g14
I00
S'\x16\xb3\x15\xb7\xa9\xcaE\xbfc\xf5\xc7UsPX?\xd6\x86\x7fNd\x8c\xe0?'
p24
tp25
bsS'average_total'
p26
g4
(g5
(I0
tp27
g7
tp28
Rp29
(I1
(I3
tp30
g14
I00
S'\x02\xbfA\xea\x8ep=?w;\xee3\x95yW?\x9b\x0c\xfdn\xbd\r\xdf?'
p31
tp32
bsS'S_total'
p33
F0.9583700239705673
s.