(dp0
S'S_top'
p1
F-2.6295566098366283
sS'S_bottom'
p2
F3.3920413809532617
sS'average_bottom'
p3
cnumpy.core.multiarray
_reconstruct
p4
(cnumpy
ndarray
p5
(I0
tp6
S'b'
p7
tp8
Rp9
(I1
(I3
tp10
cnumpy
dtype
p11
(S'f8'
p12
I0
I1
tp13
Rp14
(I3
S'<'
p15
NNNI-1
I-1
I0
tp16
bI00
S'p\x12\xa6.\xe4-P?*gg8\x1c\xa0X?\xa4\xa9$\x88\xff\r\xdd?'
p17
tp18
bsS'average_top'
p19
g4
(g5
(I0
tp20
g7
tp21
Rp22
(I1
(I3
tp23
g14
I00
S'L\xa1B\\\x12LC\xbf\xd5\xdf\x97-\xe8\x96Y?\xd2\xfe\xc7\xb6X\x9c\xe0?'
p24
tp25
bsS'average_total'
p26
g4
(g5
(I0
tp27
g7
tp28
Rp29
(I1
(I3
tp30
g14
I00
S'\xa9WjB\xbbG>?\x9dp\x90\n`\xf2X?\x8d\xf2es\x8fq\xde?'
p31
tp32
bsS'S_total'
p33
F0.7624847711166302
s.