(dp0
S'S_top'
p1
F-2.7259909661731596
sS'S_bottom'
p2
F3.258396715417496
sS'average_bottom'
p3
cnumpy.core.multiarray
_reconstruct
p4
(cnumpy
ndarray
p5
(I0
tp6
S'b'
p7
tp8
Rp9
(I1
(I3
tp10
cnumpy
dtype
p11
(S'f8'
p12
I0
I1
tp13
Rp14
(I3
S'<'
p15
NNNI-1
I-1
I0
tp16
bI00
S'\x18\x84\xad\x9a\x13\x9aO?\\\x7fW\xbc&+Z?1\xfcBp\x9d%\xdc?'
p17
tp18
bsS'average_top'
p19
g4
(g5
(I0
tp20
g7
tp21
Rp22
(I1
(I3
tp23
g14
I00
S'\xd6\x84H\x04]\xc1@\xbfw\xacM\x00M\x9eZ?\x7f\x8e\xc4{N\xa1\xe0?'
p24
tp25
bsS'average_total'
p26
g4
(g5
(I0
tp27
g7
tp28
Rp29
(I1
(I3
tp30
g14
I00
S'\x97\xff7\x03B\xf7>?\\\x0eJ\xbf\x88QZ?\xce\x9cU\xbd\xf1\xd9\xdd?'
p31
tp32
bsS'S_total'
p33
F0.532405749244322
s.