(dp0
S'S_top'
p1
F-2.8370445756996094
sS'S_bottom'
p2
F3.0991012551997708
sS'average_bottom'
p3
cnumpy.core.multiarray
_reconstruct
p4
(cnumpy
ndarray
p5
(I0
tp6
S'b'
p7
tp8
Rp9
(I1
(I3
tp10
cnumpy
dtype
p11
(S'f8'
p12
I0
I1
tp13
Rp14
(I3
S'<'
p15
NNNI-1
I-1
I0
tp16
bI00
S'\xd5Pi\x1c8\x9eN?\xe3\xc6\x88\xae\x90\xba[?Y\x034\xebaP\xdb?'
p17
tp18
bsS'average_top'
p19
g4
(g5
(I0
tp20
g7
tp21
Rp22
(I1
(I3
tp23
g14
I00
S'_ig\xa1=E<\xbfb\xa2o\x94\xebX[?\xfa\xad\xae)~\x9a\xe0?'
p24
tp25
bsS'average_total'
p26
g4
(g5
(I0
tp27
g7
tp28
Rp29
(I1
(I3
tp30
g14
I00
S';\x83"\xec\x9af??\xd6U6a\x04\x9a[?8\xc8\xbe\x0b?G\xdd?'
p31
tp32
bsS'S_total'
p33
F0.26205667950017425
s.