(dp0
S'S_top'
p1
F-2.964842354579249
sS'S_bottom'
p2
F2.915128560537922
sS'average_bottom'
p3
cnumpy.core.multiarray
_reconstruct
p4
(cnumpy
ndarray
p5
(I0
tp6
S'b'
p7
tp8
Rp9
(I1
(I3
tp10
cnumpy
dtype
p11
(S'f8'
p12
I0
I1
tp13
Rp14
(I3
S'<'
p15
NNNI-1
I-1
I0
tp16
bI00
S'\x9bu\xb1L_UM?"N\x9a\xc0\x8dO]?s!\x88LO\x8e\xda?'
p17
tp18
bsS'average_top'
p19
g4
(g5
(I0
tp20
g7
tp21
Rp22
(I1
(I3
tp23
g14
I00
S"\x9c\xd8\x03?\xd3h6\xbf7TB\xd5\x14\xc0[?'!v\xeb\xe8\x87\xe0?"
p24
tp25
bsS'average_total'
p26
g4
(g5
(I0
tp27
g7
tp28
Rp29
(I1
(I3
tp30
g14
I00
S'q\xed\xa3\x86F\xa4??\xfc\xff\x84\xb6e\xca\\?\xbb\xe3\xf6\xb2y\xb9\xdc?'
p31
tp32
bsS'S_total'
p33
F-0.0497137940413355
s.