(dp0
S'S_top'
p1
F-3.2682692319193687
sS'S_bottom'
p2
F2.492594394285371
sS'average_bottom'
p3
cnumpy.core.multiarray
_reconstruct
p4
(cnumpy
ndarray
p5
(I0
tp6
S'b'
p7
tp8
Rp9
(I1
(I3
tp10
cnumpy
dtype
p11
(S'f8'
p12
I0
I1
tp13
Rp14
(I3
S'<'
p15
NNNI-1
I-1
I0
tp16
bI00
S'\xfaR\xc4H!\xd5I?\xd8\xfe\xf1\xfeO6`?\x1d3\xb2\x9aN<\xd9?'
p17
tp18
bsS'average_top'
p19
g4
(g5
(I0
tp20
g7
tp21
Rp22
(I1
(I3
tp23
g14
I00
S'\x80\xefi\xf3\x90s\x18\xbf\xb3D\xdc\xe6\xa6\xc4[?5`\x8f{\xd8C\xe0?'
p24
tp25
bsS'average_total'
p26
g4
(g5
(I0
tp27
g7
tp28
Rp29
(I1
(I3
tp30
g14
I00
S'AX\x07\x18\xf53@?p}4\xc2M\xdf^?h\xc0\xecy\xc3\xaa\xdb?'
p31
tp32
bsS'S_total'
p33
F-0.7756748376339883
s.