(dp0
S'S_top'
p1
F-3.4394519932196475
sS'S_bottom'
p2
F2.270057798601604
sS'average_bottom'
p3
cnumpy.core.multiarray
_reconstruct
p4
(cnumpy
ndarray
p5
(I0
tp6
S'b'
p7
tp8
Rp9
(I1
(I3
tp10
cnumpy
dtype
p11
(S'f8'
p12
I0
I1
tp13
Rp14
(I3
S'<'
p15
NNNI-1
I-1
I0
tp16
bI00
S'\xbd\xe6\xc9H\xf4\xb4G?\xca\xb3\xde\xad\xee\xef`?\xd6A\x91\xabM\xa5\xd8?'
p17
tp18
bsS'average_top'
p19
g4
(g5
(I0
tp20
g7
tp21
Rp22
(I1
(I3
tp23
g14
I00
S'S\x99n\x8d\xe7v\x14?wZ10\xc1\xa1[?\nV\xf8\x1b\x8e\x16\xe0?'
p24
tp25
bsS'average_total'
p26
g4
(g5
(I0
tp27
g7
tp28
Rp29
(I1
(I3
tp30
g14
I00
S"\xaf\xe9\xf8tE\xa8@?`x\xb8^*\xcb_?\x81>p\x90\xe6'\xdb?"
p31
tp32
bsS'S_total'
p33
F-1.1693941946180215
s.