(dp0
S'S_top'
p1
F-3.620423023094497
sS'S_bottom'
p2
F2.0525173497811506
sS'average_bottom'
p3
cnumpy.core.multiarray
_reconstruct
p4
(cnumpy
ndarray
p5
(I0
tp6
S'b'
p7
tp8
Rp9
(I1
(I3
tp10
cnumpy
dtype
p11
(S'f8'
p12
I0
I1
tp13
Rp14
(I3
S'<'
p15
NNNI-1
I-1
I0
tp16
bI00
S'j\xc2%,\xbdgE?Q\xdbE\xdb\xfd\x98a?+\xf2pM\xea\x13\xd8?'
p17
tp18
bsS'average_top'
p19
g4
(g5
(I0
tp20
g7
tp21
Rp22
(I1
(I3
tp23
g14
I00
S'\x86\xaaZ\n`T2?\x0e\x1d\x9ai\xd5\x9e[?M\xd4\x87L\xf5\xca\xdf?'
p24
tp25
bsS'average_total'
p26
g4
(g5
(I0
tp27
g7
tp28
Rp29
(I1
(I3
tp30
g14
I00
S'\xdf\x85\x17\xe2:SA?\xab"at\xcdU`?\xf1H"\xfbA\xa6\xda?'
p31
tp32
bsS'S_total'
p33
F-1.567905673313344
s.