(dp0
S'S_top'
p1
F-3.8085363535729355
sS'S_bottom'
p2
F1.8487556894184036
sS'average_bottom'
p3
cnumpy.core.multiarray
_reconstruct
p4
(cnumpy
ndarray
p5
(I0
tp6
S'b'
p7
tp8
Rp9
(I1
(I3
tp10
cnumpy
dtype
p11
(S'f8'
p12
I0
I1
tp13
Rp14
(I3
S'<'
p15
NNNI-1
I-1
I0
tp16
bI00
S'\xe6S9\x87V\xf5B?I\x15\x18p\xd2*b?\xbf Q\xd6\xcd\x82\xd7?'
p17
tp18
bsS'average_top'
p19
g4
(g5
(I0
tp20
g7
tp21
Rp22
(I1
(I3
tp23
g14
I00
S'\xb12B\rs\x97@?\xb7\x91\xaaB\x17\xe6[?\xb5\xb7\x1f\xc6Mg\xdf?'
p24
tp25
bsS'average_total'
p26
g4
(g5
(I0
tp27
g7
tp28
Rp29
(I1
(I3
tp30
g14
I00
S'8\xfa\xecp`+B?\x95\x19L9\xe6\xc2`?\x9b\xda"wL$\xda?'
p31
tp32
bsS'S_total'
p33
F-1.9597806641545683
s.