(dp0
S'S_top'
p1
F-4.000331011466981
sS'S_bottom'
p2
F1.6661905809176818
sS'average_bottom'
p3
cnumpy.core.multiarray
_reconstruct
p4
(cnumpy
ndarray
p5
(I0
tp6
S'b'
p7
tp8
Rp9
(I1
(I3
tp10
cnumpy
dtype
p11
(S'f8'
p12
I0
I1
tp13
Rp14
(I3
S'<'
p15
NNNI-1
I-1
I0
tp16
bI00
S'\x05\xdakk\xe4_@?\x82d^\xca\xca\x9db?\x04\x16;\xc0\xca\xec\xd6?'
p17
tp18
bsS'average_top'
p19
g4
(g5
(I0
tp20
g7
tp21
Rp22
(I1
(I3
tp23
g14
I00
S'\xac\x11\x9d,P\x9cH?9p?\x17F\x98\\?\x80\x80\xbf\xec\xca\x07\xdf?'
p24
tp25
bsS'average_total'
p26
g4
(g5
(I0
tp27
g7
tp28
Rp29
(I1
(I3
tp30
g14
I00
S'\xa6\x85R\x98\xb1\x1eC?\x16\x8f\x01H>-a?PV\xa0\x16t\xa0\xd9?'
p31
tp32
bsS'S_total'
p33
F-2.3341404305492577
s.