(dp0
S'S_top'
p1
F-4.191514672291612
sS'S_bottom'
p2
F1.5107868522740964
sS'average_bottom'
p3
cnumpy.core.multiarray
_reconstruct
p4
(cnumpy
ndarray
p5
(I0
tp6
S'b'
p7
tp8
Rp9
(I1
(I3
tp10
cnumpy
dtype
p11
(S'f8'
p12
I0
I1
tp13
Rp14
(I3
S'<'
p15
NNNI-1
I-1
I0
tp16
bI00
S'\xff\xac\xb6\xc2\xc4S;?\xd5\x03\xf3\x9d\xa4\xeab?v\xd6\xf5\x83SM\xd6?'
p17
tp18
bsS'average_top'
p19
g4
(g5
(I0
tp20
g7
tp21
Rp22
(I1
(I3
tp23
g14
I00
S'2(C_\xf1zP?#\xfb\xc4%\x0c\xc7]?\x8b\xdaq\xb5\xf8\xb0\xde?'
p24
tp25
bsS'average_total'
p26
g4
(g5
(I0
tp27
g7
tp28
Rp29
(I1
(I3
tp30
g14
I00
S'T\x0e\xa9\xdd\x89\x18D?\x85\x0edu\xf0\x92a?@O\x94\xcf3\x19\xd9?'
p31
tp32
bsS'S_total'
p33
F-2.680727820017536
s.