(dp0
S'S_top'
p1
F-4.377219604743715
sS'S_bottom'
p2
F1.3870874098747785
sS'average_bottom'
p3
cnumpy.core.multiarray
_reconstruct
p4
(cnumpy
ndarray
p5
(I0
tp6
S'b'
p7
tp8
Rp9
(I1
(I3
tp10
cnumpy
dtype
p11
(S'f8'
p12
I0
I1
tp13
Rp14
(I3
S'<'
p15
NNNI-1
I-1
I0
tp16
bI00
S'\x9a=vMs\xbc5?d\xca5\x07[\x0cc?/2\x00\xbd\xd7\xa0\xd5?'
p17
tp18
bsS'average_top'
p19
g4
(g5
(I0
tp20
g7
tp21
Rp22
(I1
(I3
tp23
g14
I00
S'\xa4\xe0\xe92W\xafT?\xb1\xc2\x82\x89\x82t_?fCp\x1e\xbde\xde?'
p24
tp25
bsS'average_total'
p26
g4
(g5
(I0
tp27
g7
tp28
Rp29
(I1
(I3
tp30
g14
I00
S'7\xb0q\x03\x06\tE?\xe2\x8f5\xad\xfd\xf0a?\x8d\xae\xa0\xb2"\x8d\xd8?'
p31
tp32
bsS'S_total'
p33
F-2.99013219486895
s.