(dp0
S'S_top'
p1
F1.08616291129009
sS'S_bottom'
p2
F2.933895541256238
sS'average_bottom'
p3
cnumpy.core.multiarray
_reconstruct
p4
(cnumpy
ndarray
p5
(I0
tp6
S'b'
p7
tp8
Rp9
(I1
(I3
tp10
cnumpy
dtype
p11
(S'f8'
p12
I0
I1
tp13
Rp14
(I3
S'<'
p15
NNNI-1
I-1
I0
tp16
bI00
S'\xf4\x9c\x82\xea\n\xf7\xfd>\xde.\xc1\xb0u\n\xfb\xbe+\x91\xa7P\xed\x98\xee?'
p17
tp18
bsS'average_top'
p19
g4
(g5
(I0
tp20
g7
tp21
Rp22
(I1
(I3
tp23
g14
I00
S'=w)|o"\x07\xbf#\xae\x08\x1d|^\x0c?\xc5\x9fK{\xa8\r\xef?'
p24
tp25
bsS'average_total'
p26
g4
(g5
(I0
tp27
g7
tp28
Rp29
(I1
(I3
tp30
g14
I00
S'\xf8=\x8a\x00(7\xd2>w\x19\xa7\x8c\x13T\xac>K \xe4J\xd6\xbf\xee?'
p31
tp32
bsS'S_total'
p33
F4.020058452546345
s.