(dp0
S'S_top'
p1
F-4.552349998287319
sS'S_bottom'
p2
F1.2982188241692763
sS'average_bottom'
p3
cnumpy.core.multiarray
_reconstruct
p4
(cnumpy
ndarray
p5
(I0
tp6
S'b'
p7
tp8
Rp9
(I1
(I3
tp10
cnumpy
dtype
p11
(S'f8'
p12
I0
I1
tp13
Rp14
(I3
S'<'
p15
NNNI-1
I-1
I0
tp16
bI00
S'\x18\xed\xe3\xf7\xf0(0?\x9d\xe4\xe8\xacv\x01c?\xb6\x9dD|\x04\xe5\xd4?'
p17
tp18
bsS'average_top'
p19
g4
(g5
(I0
tp20
g7
tp21
Rp22
(I1
(I3
tp23
g14
I00
S'\\\xe2_\xefa\xcaX?\xf0\xbe\xd7\xd8\x8d\xcb`?\x93\x805C\xfd&\xde?'
p24
tp25
bsS'average_total'
p26
g4
(g5
(I0
tp27
g7
tp28
Rp29
(I1
(I3
tp30
g14
I00
S'"\xba\xff\xd7\xdf\xe9E?=\x01g\x1c\xd4Db?P\xfeR~\x00\xfb\xd7?'
p31
tp32
bsS'S_total'
p33
F-3.2541311741180556
s.