(dp0
S'S_top'
p1
F-4.712090474446997
sS'S_bottom'
p2
F1.2459072650420615
sS'average_bottom'
p3
cnumpy.core.multiarray
_reconstruct
p4
(cnumpy
ndarray
p5
(I0
tp6
S'b'
p7
tp8
Rp9
(I1
(I3
tp10
cnumpy
dtype
p11
(S'f8'
p12
I0
I1
tp13
Rp14
(I3
S'<'
p15
NNNI-1
I-1
I0
tp16
bI00
S'fA\x82\x81\x90\xb9%?\x83\xec\xdc\xe7U\xccb?\x188\xfa\xc3\xe4\x18\xd4?'
p17
tp18
bsS'average_top'
p19
g4
(g5
(I0
tp20
g7
tp21
Rp22
(I1
(I3
tp23
g14
I00
S"'\x7f\x92\xb2\xbe\xae\\?O:4z#\x0fb?m0\xca\xcf\x80\xf3\xdd?"
p24
tp25
bsS'average_total'
p26
g4
(g5
(I0
tp27
g7
tp28
Rp29
(I1
(I3
tp30
g14
I00
S'C\xcb\x02T\x0e\xbeF?\x85\xa2\x059E\x8db?<b\xde\xc2\xc1a\xd7?'
p31
tp32
bsS'S_total'
p33
F-3.4661832094049987
s.