(dp0
S'S_top'
p1
F-4.971117183541051
sS'S_bottom'
p2
F1.2514497446906767
sS'average_bottom'
p3
cnumpy.core.multiarray
_reconstruct
p4
(cnumpy
ndarray
p5
(I0
tp6
S'b'
p7
tp8
Rp9
(I1
(I3
tp10
cnumpy
dtype
p11
(S'f8'
p12
I0
I1
tp13
Rp14
(I3
S'<'
p15
NNNI-1
I-1
I0
tp16
bI00
S'\x00\xba\xe9q(\xad\x01?Yn7p\xe5\xfca?\x87\x93mQ\x8eR\xd2?'
p17
tp18
bsS'average_top'
p19
g4
(g5
(I0
tp20
g7
tp21
Rp22
(I1
(I3
tp23
g14
I00
S'\r\xe7\rn\xbf\xbaa?\xca/=\x8e%\xffd?\xad\x94R\xe9\xfb\x9f\xdd?'
p24
tp25
bsS'average_total'
p26
g4
(g5
(I0
tp27
g7
tp28
Rp29
(I1
(I3
tp30
g14
I00
S'\xff4\x8eO*`H?V\xc5g\xf6\xa4\xfdb?Pl\x8d?\x06\x17\xd6?'
p31
tp32
bsS'S_total'
p33
F-3.7196674388503657
s.