(dp0
S'S_top'
p1
F-5.0668825738436505
sS'S_bottom'
p2
F1.306835149524916
sS'average_bottom'
p3
cnumpy.core.multiarray
_reconstruct
p4
(cnumpy
ndarray
p5
(I0
tp6
S'b'
p7
tp8
Rp9
(I1
(I3
tp10
cnumpy
dtype
p11
(S'f8'
p12
I0
I1
tp13
Rp14
(I3
S'<'
p15
NNNI-1
I-1
I0
tp16
bI00
S'\\^\xe86\x84\xc5\xe7\xbe1\xf6\x13X\xe0ta?\x8a=>`\x83\\\xd1?'
p17
tp18
bsS'average_top'
p19
g4
(g5
(I0
tp20
g7
tp21
Rp22
(I1
(I3
tp23
g14
I00
S'T\xa05\xb42\x1bc?\xa3\x13$\xebg\x8cf?\xd8]S\r[u\xdd?'
p24
tp25
bsS'average_total'
p26
g4
(g5
(I0
tp27
g7
tp28
Rp29
(I1
(I3
tp30
g14
I00
S"k\x03\x80\xc0':I?}\x80Y\xffa'c?\xe1M\x9e2\xc9d\xd5?"
p31
tp32
bsS'S_total'
p33
F-3.760047424318759
s.