(dp0
S'S_top'
p1
F-5.193185751931124
sS'S_bottom'
p2
F1.5102274510678644
sS'average_bottom'
p3
cnumpy.core.multiarray
_reconstruct
p4
(cnumpy
ndarray
p5
(I0
tp6
S'b'
p7
tp8
Rp9
(I1
(I3
tp10
cnumpy
dtype
p11
(S'f8'
p12
I0
I1
tp13
Rp14
(I3
S'<'
p15
NNNI-1
I-1
I0
tp16
bI00
S'c<U\xdco\xe4\x0c\xbf\xfc\x84\xd7\xdcJX`?7\x02&<\x98\xb4\xce?'
p17
tp18
bsS'average_top'
p19
g4
(g5
(I0
tp20
g7
tp21
Rp22
(I1
(I3
tp23
g14
I00
S'j\xcc\x06\x9f\xf3 e?\x13\x15\x8d\xe3\xf7li?\x13\x15\xedu\xb2\xff\xdc?'
p24
tp25
bsS'average_total'
p26
g4
(g5
(I0
tp27
g7
tp28
Rp29
(I1
(I3
tp30
g14
I00
S'\x12\xcc\x0be\xb1\xf7J?\xb6\x96\x92\xa6-_c?\x80\x13\xd7:\xc1\xe6\xd3?'
p31
tp32
bsS'S_total'
p33
F-3.682958300863238
s.