(dp0
S'S_top'
p1
F-5.227988228359839
sS'S_bottom'
p2
F1.6511703062036787
sS'average_bottom'
p3
cnumpy.core.multiarray
_reconstruct
p4
(cnumpy
ndarray
p5
(I0
tp6
S'b'
p7
tp8
Rp9
(I1
(I3
tp10
cnumpy
dtype
p11
(S'f8'
p12
I0
I1
tp13
Rp14
(I3
S'<'
p15
NNNI-1
I-1
I0
tp16
bI00
S'\xf4\xe3s\xecEW\r\xbfg\x85\xf4\x9e\xdd\xad_?\xc3\xbd\xaa\x0b\x1d\xaa\xcc?'
p17
tp18
bsS'average_top'
p19
g4
(g5
(I0
tp20
g7
tp21
Rp22
(I1
(I3
tp23
g14
I00
S'4F\xff\xd0\xae\xbee?F\xe3\xa6L,\x98j?&\x02_\xc67\xa9\xdc?'
p24
tp25
bsS'average_total'
p26
g4
(g5
(I0
tp27
g7
tp28
Rp29
(I1
(I3
tp30
g14
I00
S'\xd3z\xcc\xf96\xc5K?\xbd\x1c\x05"\xaclc?2v\xeb|\xc4\x1b\xd3?'
p31
tp32
bsS'S_total'
p33
F-3.5768179221561356
s.