(dp0
S'S_top'
p1
F-5.2476434212914
sS'S_bottom'
p2
F1.8127039217635137
sS'average_bottom'
p3
cnumpy.core.multiarray
_reconstruct
p4
(cnumpy
ndarray
p5
(I0
tp6
S'b'
p7
tp8
Rp9
(I1
(I3
tp10
cnumpy
dtype
p11
(S'f8'
p12
I0
I1
tp13
Rp14
(I3
S'<'
p15
NNNI-1
I-1
I0
tp16
bI00
S'\xd1\xe2\x93\xd0;\xce\x07\xbf\xd6,\xc5\xc2\x8d\xd0^?\xf7\x0b\xady\xc2\xa2\xca?'
p17
tp18
bsS'average_top'
p19
g4
(g5
(I0
tp20
g7
tp21
Rp22
(I1
(I3
tp23
g14
I00
S':\xcc/\x9eC\x12f?\xf5\x95\xf9\xa9K\x82k?b}\xac\xb4G:\xdc?'
p24
tp25
bsS'average_total'
p26
g4
(g5
(I0
tp27
g7
tp28
Rp29
(I1
(I3
tp30
g14
I00
S'\x1f$\xd2\xf7\xb2oL?-\xbe\x0f\x12\xf1pc?\xc2I<\x82\xabI\xd2?'
p31
tp32
bsS'S_total'
p33
F-3.434939499527886
s.