(dp0
S'S_top'
p1
F-5.255018271321771
sS'S_bottom'
p2
F1.99012044453303
sS'average_bottom'
p3
cnumpy.core.multiarray
_reconstruct
p4
(cnumpy
ndarray
p5
(I0
tp6
S'b'
p7
tp8
Rp9
(I1
(I3
tp10
cnumpy
dtype
p11
(S'f8'
p12
I0
I1
tp13
Rp14
(I3
S'<'
p15
NNNI-1
I-1
I0
tp16
bI00
S'S\xd8G}\xdd\xf7\xfa\xbe&\xf7t\x9f\xbe"^?x$\xec\xe6\xe9\xa3\xc8?'
p17
tp18
bsS'average_top'
p19
g4
(g5
(I0
tp20
g7
tp21
Rp22
(I1
(I3
tp23
g14
I00
S'A\xf2V\xc5\x9a\x14f?\x0e\x84\xeb\xcdf&l?\xbb5\xc7\xe6\x13\xb0\xdb?'
p24
tp25
bsS'average_total'
p26
g4
(g5
(I0
tp27
g7
tp28
Rp29
(I1
(I3
tp30
g14
I00
S'\xb6\xff\xc3|\xea\xe0L?F\x95P\xe7\xb4mc?\x9a\xfc\x9f\xf8Qq\xd1?'
p31
tp32
bsS'S_total'
p33
F-3.2648978267887543
s.