(dp0
S'S_top'
p1
F-5.252735900303268
sS'S_bottom'
p2
F2.1783222655017287
sS'average_bottom'
p3
cnumpy.core.multiarray
_reconstruct
p4
(cnumpy
ndarray
p5
(I0
tp6
S'b'
p7
tp8
Rp9
(I1
(I3
tp10
cnumpy
dtype
p11
(S'f8'
p12
I0
I1
tp13
Rp14
(I3
S'<'
p15
NNNI-1
I-1
I0
tp16
bI00
S'\x89\x00\xd1\x82$\xb8\xa8>b\x10\x82!\xfe\xaa]?s\xae\xf5A\xc0\xb1\xc6?'
p17
tp18
bsS'average_top'
p19
g4
(g5
(I0
tp20
g7
tp21
Rp22
(I1
(I3
tp23
g14
I00
S'\xe7=\xf0\xb2\xa6\xbde?\xb1\x9e\x16\xd4\xa9\x87l?A\xdf\x97\xe4c\t\xdb?'
p24
tp25
bsS'average_total'
p26
g4
(g5
(I0
tp27
g7
tp28
Rp29
(I1
(I3
tp30
g14
I00
S')N\xc3\x13\xee\x00M?\xc7\xec~\xa45fc?\xc7H$\x08\xb4\x93\xd0?'
p31
tp32
bsS'S_total'
p33
F-3.0744136348015734
s.