(dp0
S'S_top'
p1
F-5.229296895694368
sS'S_bottom'
p2
F2.5644074123091327
sS'average_bottom'
p3
cnumpy.core.multiarray
_reconstruct
p4
(cnumpy
ndarray
p5
(I0
tp6
S'b'
p7
tp8
Rp9
(I1
(I3
tp10
cnumpy
dtype
p11
(S'f8'
p12
I0
I1
tp13
Rp14
(I3
S'<'
p15
NNNI-1
I-1
I0
tp16
bI00
S'%2\xd1\xb0\xaa\xb9\x10?O\xa3E2\x0co]?\xb8\xab\xed)\x92\xfd\xc2?'
p17
tp18
bsS'average_top'
p19
g4
(g5
(I0
tp20
g7
tp21
Rp22
(I1
(I3
tp23
g14
I00
S'b\xc3\x87\x1f\x08\xe8c?X\x92\x96\x0e\xbd\xael?R\xb6\x92~\x90i\xd9?'
p24
tp25
bsS'average_total'
p26
g4
(g5
(I0
tp27
g7
tp28
Rp29
(I1
(I3
tp30
g14
I00
S'\xd0\xfa\xe1sv\xefK?\x19`\xc4\xb1@_c?c\x89N\xa8\x11\x9a\xcd?'
p31
tp32
bsS'S_total'
p33
F-2.6648894833852372
s.