(dp0
S'S_top'
p1
F-5.214304383109272
sS'S_bottom'
p2
F2.7494253435988067
sS'average_bottom'
p3
cnumpy.core.multiarray
_reconstruct
p4
(cnumpy
ndarray
p5
(I0
tp6
S'b'
p7
tp8
Rp9
(I1
(I3
tp10
cnumpy
dtype
p11
(S'f8'
p12
I0
I1
tp13
Rp14
(I3
S'<'
p15
NNNI-1
I-1
I0
tp16
bI00
S's\xc2\x8b\x84\xf7\xc8\x18?d\xfa\xb5\xfa\x95\xb4]?\xf9\x11\xa5\xb1k=\xc1?'
p17
tp18
bsS'average_top'
p19
g4
(g5
(I0
tp20
g7
tp21
Rp22
(I1
(I3
tp23
g14
I00
S'\xfd\x03\x8e\x19\xc7bb?K\x0e\xc6\xbd\x06\x94l?\xb9\x06T\xfdhu\xd8?'
p24
tp25
bsS'average_total'
p26
g4
(g5
(I0
tp27
g7
tp28
Rp29
(I1
(I3
tp30
g14
I00
S'\xe6\x03\xd4^g\x94J?f7\x7f9\x87mc?X\x10)^\x88\xcc\xcb?'
p31
tp32
bsS'S_total'
p33
F-2.464879039510526
s.