(dp0
S'S_top'
p1
F-5.203156383581985
sS'S_bottom'
p2
F2.9191138501086145
sS'average_bottom'
p3
cnumpy.core.multiarray
_reconstruct
p4
(cnumpy
ndarray
p5
(I0
tp6
S'b'
p7
tp8
Rp9
(I1
(I3
tp10
cnumpy
dtype
p11
(S'f8'
p12
I0
I1
tp13
Rp14
(I3
S'<'
p15
NNNI-1
I-1
I0
tp16
bI00
S'\xe3\x8f\xc5w6z\x1f?2\x0e0\xf94F^?),\xba\x03\x06\x1c\xbf?'
p17
tp18
bsS'average_top'
p19
g4
(g5
(I0
tp20
g7
tp21
Rp22
(I1
(I3
tp23
g14
I00
S"\xf8\x04\x89B}y`?\xad^\x8a\xf8\xaaol?\xa4\x1f'\xd12n\xd7?"
p24
tp25
bsS'average_total'
p26
g4
(g5
(I0
tp27
g7
tp28
Rp29
(I1
(I3
tp30
g14
I00
S'\xbfuT\x9d\xcb\x96H?+\x81\xed\t\xf3\x91c?{~\xc8\xdbs\xfd\xc9?'
p31
tp32
bsS'S_total'
p33
F-2.2840425334733383
s.