(dp0
S'S_top'
p1
F-5.202727210562653
sS'S_bottom'
p2
F3.0645173687319462
sS'average_bottom'
p3
cnumpy.core.multiarray
_reconstruct
p4
(cnumpy
ndarray
p5
(I0
tp6
S'b'
p7
tp8
Rp9
(I1
(I3
tp10
cnumpy
dtype
p11
(S'f8'
p12
I0
I1
tp13
Rp14
(I3
S'<'
p15
NNNI-1
I-1
I0
tp16
bI00
S"\xf6\xd9\xc5\xd3u\xd9!?\xa1-'\xd9U-_?%j\xb6_\xec\xdb\xbb?"
p17
tp18
bsS'average_top'
p19
g4
(g5
(I0
tp20
g7
tp21
Rp22
(I1
(I3
tp23
g14
I00
S'f_\xae\x98\xeah\\?\xd7j\xf0y\xc9Ml?\xc9\xc5\xfa\x9b\x97X\xd6?'
p24
tp25
bsS'average_total'
p26
g4
(g5
(I0
tp27
g7
tp28
Rp29
(I1
(I3
tp30
g14
I00
S"<\x89?\x13'\xeaE?{\xec\x9f\xee\xb2\xd3c?]\xe1\xcf\xee\x03/\xc8?"
p31
tp32
bsS'S_total'
p33
F-2.1382098418307303
s.