(dp0
S'S_top'
p1
F-5.22262134041621
sS'S_bottom'
p2
F3.17490961511751
sS'average_bottom'
p3
cnumpy.core.multiarray
_reconstruct
p4
(cnumpy
ndarray
p5
(I0
tp6
S'b'
p7
tp8
Rp9
(I1
(I3
tp10
cnumpy
dtype
p11
(S'f8'
p12
I0
I1
tp13
Rp14
(I3
S'<'
p15
NNNI-1
I-1
I0
tp16
bI00
S'l\x84\xe0\xd0#\x19"?\xf2\x1f\xe1[/9`? B\x1a/\xf2\xb6\xb8?'
p17
tp18
bsS'average_top'
p19
g4
(g5
(I0
tp20
g7
tp21
Rp22
(I1
(I3
tp23
g14
I00
S'tB\x88\xc5\x1cAW?>\xbd\xdc9v5l?\xd7p\xa70\x849\xd5?'
p24
tp25
bsS'average_total'
p26
g4
(g5
(I0
tp27
g7
tp28
Rp29
(I1
(I3
tp30
g14
I00
S'\x14\xb5uL\xe7\x84B?\xe0\xd8\xc6\x98\xef7d?\x16^\x1a_Nc\xc6?'
p31
tp32
bsS'S_total'
p33
F-2.047711725298685
s.