(dp0
S'S_top'
p1
F-5.276307186754165
sS'S_bottom'
p2
F3.2367970706328375
sS'average_bottom'
p3
cnumpy.core.multiarray
_reconstruct
p4
(cnumpy
ndarray
p5
(I0
tp6
S'b'
p7
tp8
Rp9
(I1
(I3
tp10
cnumpy
dtype
p11
(S'f8'
p12
I0
I1
tp13
Rp14
(I3
S'<'
p15
NNNI-1
I-1
I0
tp16
bI00
S'\xb5\xd0\xcd\xf8\x17\x91\x1f?\xfaf\x93\xfeY\x0ca?%rm\x07C\xa9\xb5?'
p17
tp18
bsS'average_top'
p19
g4
(g5
(I0
tp20
g7
tp21
Rp22
(I1
(I3
tp23
g14
I00
S'\x83\xd0?\xa8k\x9dQ?J\x1f\xa7\xdb%(l?\xb9\xfc\xadx\xdd\x15\xd4?'
p24
tp25
bsS'average_total'
p26
g4
(g5
(I0
tp27
g7
tp28
Rp29
(I1
(I3
tp30
g14
I00
S'\xaf\x89\xf4)^\xbf<?\xa1\xe9\xeb\xb6F\xc0d?\r\x0b\xd5\xa2O\x9c\xc4?'
p31
tp32
bsS'S_total'
p33
F-2.0395101161213463
s.