(dp0
S'S_top'
p1
F-5.3822801683155275
sS'S_bottom'
p2
F3.2326603934810594
sS'average_bottom'
p3
cnumpy.core.multiarray
_reconstruct
p4
(cnumpy
ndarray
p5
(I0
tp6
S'b'
p7
tp8
Rp9
(I1
(I3
tp10
cnumpy
dtype
p11
(S'f8'
p12
I0
I1
tp13
Rp14
(I3
S'<'
p15
NNNI-1
I-1
I0
tp16
bI00
S'f\xc8P\x11\xe5D\x14?\x11R\xff\xe41\rb?\xce\xc8\xbc[T\xaf\xb2?'
p17
tp18
bsS'average_top'
p19
g4
(g5
(I0
tp20
g7
tp21
Rp22
(I1
(I3
tp23
g14
I00
S'X$%\xc9\xc5LG?\xf6\xf4\x86\xae\xa4!l?\x9a\xb0!\x10B\xf2\xd2?'
p24
tp25
bsS'average_total'
p26
g4
(g5
(I0
tp27
g7
tp28
Rp29
(I1
(I3
tp30
g14
I00
S'\xde\xb6\x0f\x98M\xe92?\xe1\r\x90nVie?\xe3\xad.\xf1\xed\xdb\xc2?'
p31
tp32
bsS'S_total'
p33
F-2.149619774834477
s.