(dp0
S'S_top'
p1
F-5.55950488676475
sS'S_bottom'
p2
F3.143879562941961
sS'average_bottom'
p3
cnumpy.core.multiarray
_reconstruct
p4
(cnumpy
ndarray
p5
(I0
tp6
S'b'
p7
tp8
Rp9
(I1
(I3
tp10
cnumpy
dtype
p11
(S'f8'
p12
I0
I1
tp13
Rp14
(I3
S'<'
p15
NNNI-1
I-1
I0
tp16
bI00
S'IaV\xb9p3\xc7>(\x83\x91\xe7d2c?:+\x7f\xe1\xa5\x8c\xaf?'
p17
tp18
bsS'average_top'
p19
g4
(g5
(I0
tp20
g7
tp21
Rp22
(I1
(I3
tp23
g14
I00
S'-\xd8\xd9\x16c%6?\x18\xfb\xa8\x1bz\x18l?*\x91\xf0\x1d\xd9\xd2\xd1?'
p24
tp25
bsS'average_total'
p26
g4
(g5
(I0
tp27
g7
tp28
Rp29
(I1
(I3
tp30
g14
I00
S'J\x8b\xc8\xc3\xdc\x02\x1e?\x08\x83f\xc8\xbf)f?OHY\xf9\xfc#\xc1?'
p31
tp32
bsS'S_total'
p33
F-2.415625323822783
s.