(dp0
S'S_top'
p1
F0.3036611031448512
sS'S_bottom'
p2
F3.289361313801296
sS'average_bottom'
p3
cnumpy.core.multiarray
_reconstruct
p4
(cnumpy
ndarray
p5
(I0
tp6
S'b'
p7
tp8
Rp9
(I1
(I3
tp10
cnumpy
dtype
p11
(S'f8'
p12
I0
I1
tp13
Rp14
(I3
S'<'
p15
NNNI-1
I-1
I0
tp16
bI00
S']W\x14\xfa~R\x1a?\xac\x8c\xde\xc8\xc8 \xdd>6\xe4\xac\xe1\xae\xc3\xed?'
p17
tp18
bsS'average_top'
p19
g4
(g5
(I0
tp20
g7
tp21
Rp22
(I1
(I3
tp23
g14
I00
S'\x12\x1a\x86\x8cK>)?g\xdd\xedi\x83U\x12\xbf\xbeg\x13R\x9bV\xef?'
p24
tp25
bsS'average_total'
p26
g4
(g5
(I0
tp27
g7
tp28
Rp29
(I1
(I3
tp30
g14
I00
S'\xb8r\xddpA0!?c\xbe\xc8\x9f*\x97\xf3\xbe\x9a\x81\xdal\xfdI\xee?'
p31
tp32
bsS'S_total'
p33
F3.5930224169460803
s.