(dp0
S'S_top'
p1
F4.072722879277606
sS'S_bottom'
p2
F-16.00738058763079
sS'average_bottom'
p3
cnumpy.core.multiarray
_reconstruct
p4
(cnumpy
ndarray
p5
(I0
tp6
S'b'
p7
tp8
Rp9
(I1
(I3
tp10
cnumpy
dtype
p11
(S'f8'
p12
I0
I1
tp13
Rp14
(I3
S'<'
p15
NNNI-1
I-1
I0
tp16
bI00
S'\x1a<\x8a.\xc6\xdf\x99?Y=\xbac\x93z\x94\xbf%\xed];/\x0b\xd0?'
p17
tp18
bsS'average_top'
p19
g4
(g5
(I0
tp20
g7
tp21
Rp22
(I1
(I3
tp23
g14
I00
S'+\xcc\x19\x8bgm\x90?m,{{W\x1d\xa1\xbf\\B\x18\xebZ\xd9\xd5?'
p24
tp25
bsS'average_total'
p26
g4
(g5
(I0
tp27
g7
tp28
Rp29
(I1
(I3
tp30
g14
I00
S'\x94\xb5\x99@\xa8\xb9\x96?\xb4\x8c\xb7\x8f\xef\x0f\x99\xbf!\'E"\x92\xfa\xd1?'
p31
tp32
bsS'S_total'
p33
F-11.934657708353258
s.