(dp0
S'S_top'
p1
F-0.3598669401628563
sS'S_bottom'
p2
F-1.8641069064347855
sS'average_bottom'
p3
cnumpy.core.multiarray
_reconstruct
p4
(cnumpy
ndarray
p5
(I0
tp6
S'b'
p7
tp8
Rp9
(I1
(I3
tp10
cnumpy
dtype
p11
(S'f8'
p12
I0
I1
tp13
Rp14
(I3
S'<'
p15
NNNI-1
I-1
I0
tp16
bI00
S"\xd9\x895@\xe9>\xc3>+I'n\x1e\x17\xde\xbeZ0\xd8]\xdb6\xef\xbf"
p17
tp18
bsS'average_top'
p19
g4
(g5
(I0
tp20
g7
tp21
Rp22
(I1
(I3
tp23
g14
I00
S'\xedt\x80\xb4Wd\xda\xbe\xdb~\x18\xc8\xbda\xe1\xbeXW%pR\xc2\xef\xbf'
p24
tp25
bsS'average_total'
p26
g4
(g5
(I0
tp27
g7
tp28
Rp29
(I1
(I3
tp30
g14
I00
S'\xfe.\xf6\x91J\x0e\xa3\xbewllW\xe7\xa5\xdf\xbe\xa2\xc6\x13LXe\xef\xbf'
p31
tp32
bsS'S_total'
p33
F-2.2239738465976497
s.