(dp0
S'S_top'
p1
F0.3598680228490103
sS'S_bottom'
p2
F1.864083271625273
sS'average_bottom'
p3
cnumpy.core.multiarray
_reconstruct
p4
(cnumpy
ndarray
p5
(I0
tp6
S'b'
p7
tp8
Rp9
(I1
(I3
tp10
cnumpy
dtype
p11
(S'f8'
p12
I0
I1
tp13
Rp14
(I3
S'<'
p15
NNNI-1
I-1
I0
tp16
bI00
S'\xaeB\xfdf\xf6N\xc3\xbei\x8f}>\xf4\x14\xde>r\xefA\xab\xdc6\xef?'
p17
tp18
bsS'average_top'
p19
g4
(g5
(I0
tp20
g7
tp21
Rp22
(I1
(I3
tp23
g14
I00
S'T\x80\xb8J\xbck\xda>\x86,^\xbb]h\xe1>\r\xde#zR\xc2\xef?'
p24
tp25
bsS'average_total'
p26
g4
(g5
(I0
tp27
g7
tp28
Rp29
(I1
(I3
tp30
g14
I00
S'\x9e\xa9\x05\xa63\xf7\xa2>Q\xba\xdb\x81\xe0\xa8\xdf>\xb9T\xaf-Ye\xef?'
p31
tp32
bsS'S_total'
p33
F2.2239512944742827
s.