(dp0
S'S_top'
p1
F0.30373158433022546
sS'S_bottom'
p2
F3.2891627345804593
sS'average_bottom'
p3
cnumpy.core.multiarray
_reconstruct
p4
(cnumpy
ndarray
p5
(I0
tp6
S'b'
p7
tp8
Rp9
(I1
(I3
tp10
cnumpy
dtype
p11
(S'f8'
p12
I0
I1
tp13
Rp14
(I3
S'<'
p15
NNNI-1
I-1
I0
tp16
bI00
S'1,\x93\x88=\xed\x12?NP\xbb$z}\xf6>\x0cu\x92\x92\xcb\xc3\xed?'
p17
tp18
bsS'average_top'
p19
g4
(g5
(I0
tp20
g7
tp21
Rp22
(I1
(I3
tp23
g14
I00
S'\xf5\x92X\x1b\xb3\x16&?\xd0{qF\x1c\x08\x03\xbf\nb\x8b\xa4\xadV\xef?'
p24
tp25
bsS'average_total'
p26
g4
(g5
(I0
tp27
g7
tp28
Rp29
(I1
(I3
tp30
g14
I00
S'\x8f\xc2Zp\xf1W\x1b?}\xc9\xe6\x88Gr\xc2>\xa4\xa6\xf2\xa8\x16J\xee?'
p31
tp32
bsS'S_total'
p33
F3.5928943189107425
s.