(dp0
S'S_top'
p1
F0.20693910974693203
sS'S_bottom'
p2
F4.488327946891179
sS'average_bottom'
p3
cnumpy.core.multiarray
_reconstruct
p4
(cnumpy
ndarray
p5
(I0
tp6
S'b'
p7
tp8
Rp9
(I1
(I3
tp10
cnumpy
dtype
p11
(S'f8'
p12
I0
I1
tp13
Rp14
(I3
S'<'
p15
NNNI-1
I-1
I0
tp16
bI00
S'j\x87\xaa\xb4:N(?}\xb2\xcbe\xab\xcb\x16?y\xbcb\xc7?\x9e\xeb?'
p17
tp18
bsS'average_top'
p19
g4
(g5
(I0
tp20
g7
tp21
Rp22
(I1
(I3
tp23
g14
I00
S'"\xe8\xc9 m\x1b??%c\x1aE\x99\x7f\xf4\xbe\xea{\xf5\xe6F\x9e\xed?'
p24
tp25
bsS'average_total'
p26
g4
(g5
(I0
tp27
g7
tp28
Rp29
(I1
(I3
tp30
g14
I00
S'\x0eU\xbd\x08\x8ax2?\x99\xb0\xa4\x8aT\xfa\n?\x80qHz\xecH\xec?'
p31
tp32
bsS'S_total'
p33
F4.695267056638143
s.