(dp0
S'S_top'
p1
F0.3647585697934334
sS'S_bottom'
p2
F2.16805671931419
sS'average_bottom'
p3
cnumpy.core.multiarray
_reconstruct
p4
(cnumpy
ndarray
p5
(I0
tp6
S'b'
p7
tp8
Rp9
(I1
(I3
tp10
cnumpy
dtype
p11
(S'f8'
p12
I0
I1
tp13
Rp14
(I3
S'<'
p15
NNNI-1
I-1
I0
tp16
bI00
S'\x00\xa5\x12\xe6\xe8\xdc\xc3>P\xd7\xb8\xf7\xd0\x10\xe3>^^t\x9e1\xfd\xee?'
p17
tp18
bsS'average_top'
p19
g4
(g5
(I0
tp20
g7
tp21
Rp22
(I1
(I3
tp23
g14
I00
S'|b\xa1J\x08\xf8\xf2>KE\xd3m\x06,\xcf>3\xc4\xd4Gl\xb9\xef?'
p24
tp25
bsS'average_total'
p26
g4
(g5
(I0
tp27
g7
tp28
Rp29
(I1
(I3
tp30
g14
I00
S'\x1a\nr\xbc\xa2\xe9\xdf>\x16"W8\xc6\x9d\xde>\x8aK\xb3\xb6\xef;\xef?'
p31
tp32
bsS'S_total'
p33
F2.532815289107622
s.