(dp0
S'S_top'
p1
F0.3241863147541792
sS'S_bottom'
p2
F-11.503110388105917
sS'average_bottom'
p3
cnumpy.core.multiarray
_reconstruct
p4
(cnumpy
ndarray
p5
(I0
tp6
S'b'
p7
tp8
Rp9
(I1
(I3
tp10
cnumpy
dtype
p11
(S'f8'
p12
I0
I1
tp13
Rp14
(I3
S'<'
p15
NNNI-1
I-1
I0
tp16
bI00
S'6\x10,\xfa\xcb\xfd{?\x94\xce\x04i\x0b\xd8d\xbfZ\xbfR\x88\xeb\xa3\xeb?'
p17
tp18
bsS'average_top'
p19
g4
(g5
(I0
tp20
g7
tp21
Rp22
(I1
(I3
tp23
g14
I00
S'ex\x91\xd2\xdcr\x83?T:[2\xa7M\x82\xbf\xd0\xc5S\xa3\xc2\xfa\xee?'
p24
tp25
bsS'average_total'
p26
g4
(g5
(I0
tp27
g7
tp28
Rp29
(I1
(I3
tp30
g14
I00
S'o\xb0\xb0\xaan\xa0\x7f?\xe4\xffd\xc9n&s\xbf=\xdd\\T\xdd\xc0\xec?'
p31
tp32
bsS'S_total'
p33
F-11.1789240733516
s.