(dp0
S'S_top'
p1
F-1.6818061873350516
sS'S_bottom'
p2
F-11.228445950930901
sS'average_bottom'
p3
cnumpy.core.multiarray
_reconstruct
p4
(cnumpy
ndarray
p5
(I0
tp6
S'b'
p7
tp8
Rp9
(I1
(I3
tp10
cnumpy
dtype
p11
(S'f8'
p12
I0
I1
tp13
Rp14
(I3
S'<'
p15
NNNI-1
I-1
I0
tp16
bI00
S'l^\xdc\xffM\xf3w?t\x9d\xc3\x86\xf6\xa8j?\x1dR\xbf\xff\xde\x80\xd7\xbf'
p17
tp18
bsS'average_top'
p19
g4
(g5
(I0
tp20
g7
tp21
Rp22
(I1
(I3
tp23
g14
I00
S'\x9e|^;\x7f\xc2\x81?!\xf9\xf4\x87\xea$2?\x96\x15\xfdl\x1bn\xd3\xbf'
p24
tp25
bsS'average_total'
p26
g4
(g5
(I0
tp27
g7
tp28
Rp29
(I1
(I3
tp30
g14
I00
S'\xfd$L\xd7\x86\xce{?+\x89{\xa1\x87\x87b?VJ\xf3+I%\xd6\xbf'
p31
tp32
bsS'S_total'
p33
F-12.910252138266248
s.