(dp0
S'S_top'
p1
F0.284268557485267
sS'S_bottom'
p2
F6.084437894113046
sS'average_bottom'
p3
cnumpy.core.multiarray
_reconstruct
p4
(cnumpy
ndarray
p5
(I0
tp6
S'b'
p7
tp8
Rp9
(I1
(I3
tp10
cnumpy
dtype
p11
(S'f8'
p12
I0
I1
tp13
Rp14
(I3
S'<'
p15
NNNI-1
I-1
I0
tp16
bI00
S'2f-\x8bI\x16\x0c?Z\xe2\xcdu\xf3\xe4&?\xb4)\xa3\xc6\xfc\x1e\xe8?'
p17
tp18
bsS'average_top'
p19
g4
(g5
(I0
tp20
g7
tp21
Rp22
(I1
(I3
tp23
g14
I00
S'\xf8t1\xb2al;?qB\x1do\x12\xe9+?\x9c\x108\x0f\x87k\xe9?'
p24
tp25
bsS'average_total'
p26
g4
(g5
(I0
tp27
g7
tp28
Rp29
(I1
(I3
tp30
g14
I00
S'+\xecc\x89\x9a\xf6&?\n~%\xed\xfc\x90(?\xbe|\x96P\xd5\x8d\xe8?'
p31
tp32
bsS'S_total'
p33
F6.368706451598283
s.