(dp0
S'S_top'
p1
F-0.20696751721276346
sS'S_bottom'
p2
F-4.488196731006304
sS'average_bottom'
p3
cnumpy.core.multiarray
_reconstruct
p4
(cnumpy
ndarray
p5
(I0
tp6
S'b'
p7
tp8
Rp9
(I1
(I3
tp10
cnumpy
dtype
p11
(S'f8'
p12
I0
I1
tp13
Rp14
(I3
S'<'
p15
NNNI-1
I-1
I0
tp16
bI00
S'r\xb4\x97\x00bM(\xbf\xe9}k\x83Q\xbd\x16\xbf\xadoZ\x19Y\x9e\xeb\xbf'
p17
tp18
bsS'average_top'
p19
g4
(g5
(I0
tp20
g7
tp21
Rp22
(I1
(I3
tp23
g14
I00
S'GZ_\x9dP\x18?\xbf\xb8Zi\xb1\x89\xc6\xf4>\xac\x00i5h\x9e\xed\xbf'
p24
tp25
bsS'average_total'
p26
g4
(g5
(I0
tp27
g7
tp28
Rp29
(I1
(I3
tp30
g14
I00
S'mO\tL8w2\xbf\x99i\xeaK_\xdb\n\xbf.b\xbdu\x08I\xec\xbf'
p31
tp32
bsS'S_total'
p33
F-4.69516424821903
s.