(dp0
S'S_top'
p1
F-0.6416506467976885
sS'S_bottom'
p2
F-7.7809299910230445
sS'average_bottom'
p3
cnumpy.core.multiarray
_reconstruct
p4
(cnumpy
ndarray
p5
(I0
tp6
S'b'
p7
tp8
Rp9
(I1
(I3
tp10
cnumpy
dtype
p11
(S'f8'
p12
I0
I1
tp13
Rp14
(I3
S'<'
p15
NNNI-1
I-1
I0
tp16
bI00
S' \x86a\x1d\xc4{0?]/\xee\x1c\xb3B\x07\xbf!gYi\xc94\xe4\xbf'
p17
tp18
bsS'average_top'
p19
g4
(g5
(I0
tp20
g7
tp21
Rp22
(I1
(I3
tp23
g14
I00
S'\xf8I\x01\xa9\xc5\xa8\x08?9\xf6S\x04`\x001\xbfN\xa3ZP\xe2K\xe4\xbf'
p24
tp25
bsS'average_total'
p26
g4
(g5
(I0
tp27
g7
tp28
Rp29
(I1
(I3
tp30
g14
I00
S'q\xcf\xd2\xe0o\x08(?\x1d\x87\x88i\x07l\x1e\xbf\xd0\x8f\x10]|<\xe4\xbf'
p31
tp32
bsS'S_total'
p33
F-8.422580637820715
s.