(dp0
S'S_top'
p1
F1.6820057222908118
sS'S_bottom'
p2
F11.228456749693585
sS'average_bottom'
p3
cnumpy.core.multiarray
_reconstruct
p4
(cnumpy
ndarray
p5
(I0
tp6
S'b'
p7
tp8
Rp9
(I1
(I3
tp10
cnumpy
dtype
p11
(S'f8'
p12
I0
I1
tp13
Rp14
(I3
S'<'
p15
NNNI-1
I-1
I0
tp16
bI00
S'6\x95D\xbf\xbc\xacw\xbf\x0e\xce\x9d@\x03kj\xbfIr\x1b\xeb\xdb\x80\xd7?'
p17
tp18
bsS'average_top'
p19
g4
(g5
(I0
tp20
g7
tp21
Rp22
(I1
(I3
tp23
g14
I00
S"\xd2\x80\x83\x85\x98\x94\x81\xbfZ3m\x96[r2\xbf\xcdp'a'n\xd3?"
p24
tp25
bsS'average_total'
p26
g4
(g5
(I0
tp27
g7
tp28
Rp29
(I1
(I3
tp30
g14
I00
S'>L\xf7\x8b\xe1\x80{\xbf%\xca\x0f\xc7tab\xbf\x06A<\x1aK%\xd6?'
p31
tp32
bsS'S_total'
p33
F12.910462471984248
s.