(dp0
S'S_top'
p1
F4.9176695742207555
sS'S_bottom'
p2
F-14.696387259749372
sS'average_bottom'
p3
cnumpy.core.multiarray
_reconstruct
p4
(cnumpy
ndarray
p5
(I0
tp6
S'b'
p7
tp8
Rp9
(I1
(I3
tp10
cnumpy
dtype
p11
(S'f8'
p12
I0
I1
tp13
Rp14
(I3
S'<'
p15
NNNI-1
I-1
I0
tp16
bI00
S'jB\xa1\xfeF"\x99?\x90\xb4\xff;F\xcc\x94\xbf\xc7c\x96\x07\x9f=\xb5?'
p17
tp18
bsS'average_top'
p19
g4
(g5
(I0
tp20
g7
tp21
Rp22
(I1
(I3
tp23
g14
I00
S'\xaa\x88\xcaeqT\x8f?M\x997\xaa\x81\x8a\xa1\xbf\x05&\x1b4G6\xc8?'
p24
tp25
bsS'average_total'
p26
g4
(g5
(I0
tp27
g7
tp28
Rp29
(I1
(I3
tp30
g14
I00
S'\xe7\xaa\x90\xd9C\xfa\x95?|\x83\x01}-\x8f\x99\xbf\x9c\x8f\xdc\x80?M\xbe?'
p31
tp32
bsS'S_total'
p33
F-9.778717685528672
s.