(dp0
S'S_top'
p1
F-4.752753776588964
sS'S_bottom'
p2
F12.805758532356574
sS'average_bottom'
p3
cnumpy.core.multiarray
_reconstruct
p4
(cnumpy
ndarray
p5
(I0
tp6
S'b'
p7
tp8
Rp9
(I1
(I3
tp10
cnumpy
dtype
p11
(S'f8'
p12
I0
I1
tp13
Rp14
(I3
S'<'
p15
NNNI-1
I-1
I0
tp16
bI00
S'.QyS\x11\xf0a\xbf\x89\xdf\xb4\x15X)R?\xd6!\xe1p\xb0\x87\xcc?'
p17
tp18
bsS'average_top'
p19
g4
(g5
(I0
tp20
g7
tp21
Rp22
(I1
(I3
tp23
g14
I00
S'\x19\xcdL\xe6\x00\xcfX\xbf8\xe6\xc8\xd2>\x9be?\xe1xv.\x92\x8b\xbe?'
p24
tp25
bsS'average_total'
p26
g4
(g5
(I0
tp27
g7
tp28
Rp29
(I1
(I3
tp30
g14
I00
S'Wn \xfb\xe1\x17`\xbf\xfa\xad!\xfc\n\x83Z?\xcc\x14\xd2\x97e\x1c\xc8?'
p31
tp32
bsS'S_total'
p33
F8.053004755767567
s.