(dp0
S'S_top'
p1
F0.6416490589444781
sS'S_bottom'
p2
F7.78093085640578
sS'average_bottom'
p3
cnumpy.core.multiarray
_reconstruct
p4
(cnumpy
ndarray
p5
(I0
tp6
S'b'
p7
tp8
Rp9
(I1
(I3
tp10
cnumpy
dtype
p11
(S'f8'
p12
I0
I1
tp13
Rp14
(I3
S'<'
p15
NNNI-1
I-1
I0
tp16
bI00
S'}\x1cS\x9c\x97\x021\xbf;\xe1\x13\xd9,z\x04?{\x96\x08\xf6\xc84\xe4?'
p17
tp18
bsS'average_top'
p19
g4
(g5
(I0
tp20
g7
tp21
Rp22
(I1
(I3
tp23
g14
I00
S'G\xb6o\xcfY8\x0f\xbf;\xcax\xb9\xa0\xeb0?\x9f\x90\x13\xed\xe0K\xe4?'
p24
tp25
bsS'average_total'
p26
g4
(g5
(I0
tp27
g7
tp28
Rp29
(I1
(I3
tp30
g14
I00
S'N\x82\x92s+H)\xbf<\xc4\x01k\xdbb\x1d?\x08(\xc3\x99{<\xe4?'
p31
tp32
bsS'S_total'
p33
F8.422579915350202
s.