(dp0
S'S_top'
p1
F0.35403102944049286
sS'S_bottom'
p2
F2.600481677836698
sS'average_bottom'
p3
cnumpy.core.multiarray
_reconstruct
p4
(cnumpy
ndarray
p5
(I0
tp6
S'b'
p7
tp8
Rp9
(I1
(I3
tp10
cnumpy
dtype
p11
(S'f8'
p12
I0
I1
tp13
Rp14
(I3
S'<'
p15
NNNI-1
I-1
I0
tp16
bI00
S"\xf4\x04\xc3\xb3'\xaf\xf1>i\xacH\x9be\xae\xe8>`\xac\xa9?\xcb\x99\xee?"
p17
tp18
bsS'average_top'
p19
g4
(g5
(I0
tp20
g7
tp21
Rp22
(I1
(I3
tp23
g14
I00
S'\xc7R\x86m\xacY\n?#$\x9e\x17]\xe0\xdd\xbe}\xedQ\x9d\xbc\xa5\xef?'
p24
tp25
bsS'average_total'
p26
g4
(g5
(I0
tp27
g7
tp28
Rp29
(I1
(I3
tp30
g14
I00
S'\xc7\x18\x15\x182[\xfd>\xef \x0e\xac \xf3\xd6>J3\\\x86\x1b\xf3\xee?'
p31
tp32
bsS'S_total'
p33
F2.9545127072772384
s.