(dp0
S'S_top'
p1
F2.6501702538128025
sS'S_bottom'
p2
F14.971036905605096
sS'average_bottom'
p3
cnumpy.core.multiarray
_reconstruct
p4
(cnumpy
ndarray
p5
(I0
tp6
S'b'
p7
tp8
Rp9
(I1
(I3
tp10
cnumpy
dtype
p11
(S'f8'
p12
I0
I1
tp13
Rp14
(I3
S'<'
p15
NNNI-1
I-1
I0
tp16
bI00
S'\\%\x03\xdf\x7fal\xbf\xc7~\xc4R*\xc6M\xbf\xce\x82\n\xfa\xbdV\xb5?'
p17
tp18
bsS'average_top'
p19
g4
(g5
(I0
tp20
g7
tp21
Rp22
(I1
(I3
tp23
g14
I00
S'\xd7%\x99*F\x9ep\xbf/c\x7f\xa7\xf6ma?\xec\xee/\xa1\xf9\xac\x9d?'
p24
tp25
bsS'average_total'
p26
g4
(g5
(I0
tp27
g7
tp28
Rp29
(I1
(I3
tp30
g14
I00
S'\xab\xdfz\x1d]\x80m\xbf\xa1j7%PA+\xbfH\x9f\x8bo` \xb2?'
p31
tp32
bsS'S_total'
p33
F17.62120715941791
s.